c__builtin__
set
p1
((lp2
(S'canned'
p3
tp4
a(S'final'
p5
tp6
a(S'you'
p7
S'have'
p8
tp9
a(S'difficult'
p10
tp11
a(S'horror'
p12
tp13
a(S'trick'
tp14
a(S'directors'
p15
tp16
a(S'intricate'
tp17
a(S'does'
p18
tp19
a(S'have'
p20
S'made'
p21
tp22
a(S'now'
p23
tp24
a(S'long'
tp25
a(S'could'
p26
S'possibly'
p27
tp28
a(S'you'
S'grew'
p29
tp30
a(S'spice'
p31
tp32
a(S'forceful'
p33
tp34
a(S'malkovich'
tp35
a(S'mostly'
p36
tp37
a(S'zero'
p38
tp39
a(S'damon'
p40
tp41
a(S'done'
p42
tp43
a(S'struggle'
p44
tp45
a(S'child'
p46
tp47
a(S'embraces'
p48
tp49
a(S'unflinching'
p50
tp51
a(S'prefer'
p52
tp53
a(S'punch'
tp54
a(S'edge'
tp55
a(S'slap'
p56
tp57
a(S'ethics'
p58
tp59
a(S'common'
p60
tp61
a(S'way'
p62
tp63
a(S'masterfully'
p64
tp65
a(S'cliches'
p66
tp67
a(S'car'
p68
tp69
a(S'concerned'
tp70
a(S'offbeat'
tp71
a(S'hurley'
p72
tp73
a(S'cobbled'
p74
tp75
a(S'stylistic'
p76
tp77
a(S'meaning'
p78
tp79
a(S'productions'
p80
tp81
a(S"hoffman's"
p82
tp83
a(S'names'
tp84
a(S'complexities'
tp85
a(S'groups'
p86
tp87
a(S'pull'
tp88
a(S'generous'
p89
tp90
a(S'monsters'
p91
tp92
a(S'neverland'
p93
tp94
a(S'danny'
p95
tp96
a(S'endearing'
p97
tp98
a(S'all'
p99
S'three'
p100
tp101
a(S'benigni'
p102
tp103
a(S'created'
p104
tp105
a(S'commitment'
tp106
a(S'unpleasant'
p107
tp108
a(S'wonder'
p109
tp110
a(S'winds'
tp111
a(S'truth'
tp112
a(S'prurient'
p113
tp114
a(S'psychology'
p115
tp116
a(S'career'
p117
tp118
a(S'everyone'
p119
tp120
a(S'market'
tp121
a(S'deserve'
p122
tp123
a(S'film'
p124
S'never'
p125
tp126
a(S'clashing'
p127
tp128
a(S'last'
S'kiss'
tp129
a(S'rowdy'
p130
tp131
a(S'jane'
p132
tp133
a(S'college'
p134
tp135
a(S'fiction'
p136
tp137
a(S'mysteries'
p138
tp139
a(S'cinematic'
S'equivalent'
tp140
a(S'happen'
p141
tp142
a(S'worthy'
p143
tp144
a(S'intriguing'
tp145
a(S'indie'
tp146
a(S"i'm"
p147
S'sure'
p148
tp149
a(S'red'
p150
tp151
a(S'money'
tp152
a(S'something'
p153
S'about'
p154
S'mary'
p155
tp156
a(S'alone'
p157
tp158
a(S'unusual'
tp159
a(S'ultimate'
p160
tp161
a(S'unabashedly'
p162
tp163
a(S'mundane'
p164
tp165
a(S'totally'
p166
tp167
a(S'introduction'
tp168
a(S'gem'
p169
tp170
a(S'starts'
p171
tp172
a(S'gripping'
tp173
a(S'brilliantly'
p174
tp175
a(S'string'
tp176
a(S'collision'
p177
tp178
a(S"amy's"
p179
tp180
a(S'holm'
p181
tp182
a(S"filmmaker's"
p183
tp184
a(S"it's"
p185
S'going'
p186
tp187
a(S"don't"
S'know'
tp188
a(S'mouth'
p189
tp190
a(S'guy'
p191
tp192
a(S'passing'
p193
tp194
a(S'expect'
p195
tp196
a(S'sympathetic'
p197
tp198
a(S'trash'
p199
tp200
a(S'minutes'
p201
tp202
a(S'joyful'
p203
tp204
a(S'has'
p205
S'some'
p206
tp207
a(S'steeped'
p208
tp209
a(S'group'
p210
tp211
a(S'told'
p212
tp213
a(S'becoming'
p214
tp215
a(S'reflection'
p216
tp217
a(S'large'
tp218
a(S'enlightening'
tp219
a(S'needed'
tp220
a(S'amazing'
p221
tp222
a(S'american'
p223
tp224
a(S'discover'
tp225
a(S'good'
p226
S'intentions'
p227
tp228
a(S'complex'
p229
tp230
a(S'romantic'
p231
S'comedies'
p232
tp233
a(S'letter'
p234
tp235
a(S'yourself'
p236
tp237
a(S'does'
p238
S'not'
p239
tp240
a(S'touched'
p241
tp242
a(g68
S'chases'
p243
tp244
a(S'1975'
tp245
a(S'denied'
tp246
a(S'mike'
p247
tp248
a(S'screenwriter'
p249
tp250
a(S'star'
tp251
a(S'attraction'
p252
tp253
a(S'doses'
p254
tp255
a(S'fate'
p256
tp257
a(g18
S'have'
p258
tp259
a(S'pacing'
p260
tp261
a(S'delightfully'
p262
tp263
a(S'too'
p264
S'much'
p265
tp266
a(S'superb'
p267
tp268
a(S'mad'
p269
tp270
a(S'prime'
p271
tp272
a(S'weepy'
p273
tp274
a(S'stays'
p275
tp276
a(S'lillard'
tp277
a(S'english-language'
p278
tp279
a(S'existentialism'
p280
tp281
a(S'word'
p282
tp283
a(S'songs'
p284
tp285
a(S"miller's"
p286
tp287
a(S'remind'
tp288
a(S'second'
tp289
a(S'live'
p290
tp291
a(S'alive'
p292
tp293
a(S'openness'
p294
tp295
a(S'whimsical'
p296
tp297
a(S'evocative'
p298
tp299
a(S'its'
p300
S'makers'
p301
tp302
a(S'true'
tp303
a(S'sets'
p304
tp305
a(S"director's"
p306
S'previous'
p307
tp308
a(S'ways'
tp309
a(S'murder'
p310
tp311
a(S'hawn'
p312
tp313
a(S'cynical'
p314
tp315
a(S'clumsy'
p316
tp317
a(S'completely'
p318
tp319
a(S'you'
S'see'
p320
tp321
a(S'humorless'
p322
tp323
a(S'easily'
p324
tp325
a(S'soap'
p326
tp327
a(S'spooky'
p328
tp329
a(S'easy'
S'answers'
p330
tp331
a(S'modern'
p332
tp333
a(S'very'
p334
S'bad'
p335
tp336
a(S'favor'
p337
tp338
a(S'park'
p339
tp340
a(S'female'
p341
S'friendship'
p342
tp343
a(S'its'
S'own'
p344
S'good'
p345
tp346
a(S'blows'
p347
tp348
a(S'hip'
p349
tp350
a(S'nerve'
p351
tp352
a(S'former'
p353
tp354
a(S'ramsay'
tp355
a(S'reasonably'
p356
tp357
a(S'trace'
tp358
a(S'earnest'
tp359
a(S'devices'
p360
tp361
a(S'featuring'
p362
tp363
a(S'enjoys'
tp364
a(S'western'
p365
tp366
a(S'talking'
p367
tp368
a(S'moviegoers'
p369
S'who'
p370
tp371
a(S'colors'
p372
tp373
a(S'hipness'
p374
tp375
a(S'character'
p376
tp377
a(S'necessarily'
p378
tp379
a(S'driven'
tp380
a(S'history'
tp381
a(S'harsh'
tp382
a(S'presents'
p383
tp384
a(S"you'll"
p385
tp386
a(S'unlike'
p387
tp388
a(S"didn't"
p389
tp390
a(S'title'
p391
tp392
a(S"don't"
p393
S'have'
p394
tp395
a(S'goofy'
p396
tp397
a(S"film's"
p398
tp399
a(S'total'
p400
tp401
a(S'ambitious'
p402
tp403
a(S'too'
p404
S'many'
p405
tp406
a(S'tells'
p407
tp408
a(S'solondz'
p409
tp410
a(S'maybe'
p411
tp412
a(S'before'
p413
tp414
a(S'accent'
p415
tp416
a(S'feels'
p417
tp418
a(S'uses'
p419
tp420
a(S'finely'
p421
tp422
a(S'smile'
tp423
a(S'entertaining'
p424
tp425
a(S'something'
p426
tp427
a(S'stays'
p428
S'afloat'
p429
tp430
a(S'all'
p431
S'its'
p432
tp433
a(S'eye'
p434
tp435
a(S'nice'
tp436
a(S'nonetheless'
p437
tp438
a(S'uplifting'
tp439
a(S'pie'
p440
tp441
a(S'dose'
tp442
a(S'some'
p443
S'truly'
p444
tp445
a(S'might'
p446
S'have'
p447
tp448
a(S'reno'
tp449
a(S'women'
p450
tp451
a(S'steven'
p452
tp453
a(S'hoping'
tp454
a(S'themes'
p455
tp456
a(S'intentions'
p457
tp458
a(S'its'
p459
S'own'
p460
tp461
a(S'test'
p462
tp463
a(S'experience'
p464
tp465
a(S'joe'
p466
tp467
a(S'being'
p468
tp469
a(S'said'
p470
tp471
a(S'painful'
p472
tp473
a(S'urgency'
tp474
a(S'first'
p475
tp476
a(S'pauline'
tp477
a(S'romance'
p478
tp479
a(S'more'
p480
S'fun'
p481
tp482
a(S'first'
p483
S'time'
p484
tp485
a(S'cast'
p486
tp487
a(S'new'
p488
S'york'
p489
tp490
a(S'sit'
p491
tp492
a(S'forgive'
tp493
a(S'ideas'
p494
tp495
a(S'passion'
p496
tp497
a(S'else'
p498
tp499
a(S'either'
p500
tp501
a(S'smiles'
tp502
a(S'bringing'
p503
tp504
a(S'who'
S'might'
tp505
a(S'failing'
tp506
a(S'sources'
p507
tp508
a(S'insightfully'
p509
tp510
a(S'modest'
tp511
a(S'gross-out'
p512
tp513
a(S'every'
p514
tp515
a(S'beautifully'
p516
tp517
a(S'certainly'
p518
tp519
a(S'drugs'
tp520
a(S'jackson'
p521
tp522
a(S'worth'
p523
S'seeing'
p524
tp525
a(S'creation'
tp526
a(S'roman'
p527
tp528
a(S'production'
p529
tp530
a(S'victim'
tp531
a(S'sad'
p532
tp533
a(S'cute'
p534
tp535
a(S'interested'
tp536
a(S'exaggerated'
p537
tp538
a(S'handle'
p539
tp540
a(S'steady'
tp541
a(S'bogs'
p542
S'down'
p543
tp544
a(S'proud'
tp545
a(S'chaos'
tp546
a(S'mysterious'
tp547
a(S'resonant'
tp548
a(S'some'
p549
S'very'
p550
tp551
a(S'moods'
p552
tp553
a(S'motivations'
p554
tp555
a(S'feeling'
tp556
a(S'might'
p557
tp558
a(S'musical'
p559
tp560
a(S'viewer'
tp561
a(S'brains'
p562
tp563
a(S'attempt'
p564
tp565
a(S'secretary'
p566
tp567
a(S'thirteen'
p568
S'conversations'
p569
tp570
a(S'drag'
p571
tp572
a(S'characters'
p573
S'never'
p574
tp575
a(S'expectation'
p576
tp577
a(S'film'
p578
S'feels'
p579
tp580
a(S'anywhere'
p581
tp582
a(S'often'
p583
S'very'
p584
tp585
a(S'alienation'
tp586
a(S'how'
p587
S'bad'
p588
tp589
a(S'worked'
p590
tp591
a(S'beautiful'
tp592
a(S'toilet'
tp593
a(S'knows'
p594
S'how'
tp595
a(S'ourselves'
p596
tp597
a(S'dreams'
tp598
a(S'joke'
tp599
a(S'england'
tp600
a(S'sandra'
p601
S'bullock'
p602
tp603
a(S'seems'
p604
tp605
a(S'nature'
p606
tp607
a(g23
S"it's"
tp608
a(S'quirky'
p609
tp610
a(S'feature'
S'debut'
tp611
a(S'tear'
p612
tp613
a(S'comedy'
p614
tp615
a(S'words'
p616
tp617
a(S'its'
p618
S'most'
p619
tp620
a(S'hong'
p621
tp622
a(S'dramatically'
p623
tp624
a(S'worth'
p625
S'your'
p626
S'time'
p627
tp628
a(S"one's"
p629
tp630
a(S'hoffman'
p631
tp632
a(S'chuckles'
p633
tp634
a(S'immense'
p635
tp636
a(S'reach'
tp637
a(S'shaped'
p638
tp639
a(S'tour'
tp640
a(S'book'
p641
tp642
a(S'little'
p643
S'more'
p644
S'than'
p645
tp646
a(S'would'
p647
S'have'
p648
S'been'
p649
tp650
a(S'attractive'
tp651
a(S'knowing'
p652
tp653
a(S"they're"
p654
tp655
a(S'tradition'
p656
tp657
a(S'wooden'
tp658
a(S'packed'
p659
tp660
a(S'leading'
p661
tp662
a(S"you'd"
p663
tp664
a(S'broken'
p665
tp666
a(S'story'
p667
S'about'
p668
tp669
a(S'succeeds'
p670
tp671
a(S'even'
p672
S'those'
p673
tp674
a(S'warm'
tp675
a(S'daily'
p676
tp677
a(S'borders'
tp678
a(S'desire'
p679
tp680
a(S'more'
p681
S'interesting'
p682
tp683
a(S'great'
p684
tp685
a(S'display'
p686
tp687
a(S'simple'
tp688
a(S'momentum'
p689
tp690
a(S'well-intentioned'
tp691
a(S"that's"
p692
tp693
a(S'all'
p694
S'about'
p695
tp696
a(S'than'
p697
S'its'
p698
S'predecessor'
p699
tp700
a(S'some'
p701
S'time'
p702
tp703
a(S'timing'
tp704
a(S'portrayal'
p705
tp706
a(S'potentially'
p707
tp708
a(S'wave'
tp709
a(S'emotion'
p710
tp711
a(S'rich'
p712
tp713
a(S'narrative'
p714
tp715
a(S'senses'
p716
tp717
a(S'funnier'
p718
tp719
a(S'follows'
tp720
a(S'shot'
p721
tp722
a(S'aesthetic'
p723
tp724
a(S'found'
p725
tp726
a(S'best'
p727
S'film'
p728
tp729
a(S'incident'
p730
tp731
a(S'proves'
tp732
a(S'breezy'
p733
tp734
a(S'thanks'
tp735
a(S'closer'
p736
tp737
a(S'empire'
p738
tp739
a(S'reveal'
tp740
a(S'loud'
p741
tp742
a(S'reunion'
tp743
a(S'better'
S'than'
tp744
a(S'chilling'
tp745
a(S'room'
p746
tp747
a(S'deeper'
p748
tp749
a(S'looks'
p750
S'like'
p751
tp752
a(S'anyway'
tp753
a(S'scratching'
tp754
a(S'take'
p755
tp756
a(S'real'
p757
tp758
a(S'motown'
p759
tp760
a(S'niche'
p761
tp762
a(S"it's"
p763
S'good'
p764
tp765
a(S"there's"
p766
S'nothing'
p767
tp768
a(S'half'
tp769
a(S'help'
p770
tp771
a(S'than'
p772
S'his'
p773
tp774
a(S'feature'
p775
tp776
a(S'folks'
p777
tp778
a(S'machismo'
p779
tp780
a(S"she's"
p781
tp782
a(S'embrace'
p783
tp784
a(S'french'
S'film'
tp785
a(S'wallop'
tp786
a(S'bourne'
p787
S'identity'
p788
tp789
a(S'all'
p790
S'over'
p791
tp792
a(S'faithful'
p793
tp794
a(S'resorting'
tp795
a(S'loose'
tp796
a(S'commercialism'
p797
tp798
a(S'mind'
p799
tp800
a(S'state'
p801
tp802
a(S'scooby'
p803
tp804
a(S'less'
p805
S'than'
p806
tp807
a(S'stupid'
p808
tp809
a(S'trouble'
p810
tp811
a(S'greatly'
p812
tp813
a(S'his'
p814
S'next'
p815
tp816
a(S'henry'
p817
tp818
a(S'those'
p819
tp820
a(S'robert'
p821
tp822
a(S'gifts'
tp823
a(S'debut'
p824
tp825
a(S'lifestyle'
p826
tp827
a(S'creativity'
tp828
a(S'studio'
p829
tp830
a(S'letting'
p831
tp832
a(S'reading'
tp833
a(S'somewhat'
p834
tp835
a(S'ambiguous'
p836
tp837
a(S'committed'
p838
tp839
a(S'intelligence'
tp840
a(S'behind'
p841
tp842
a(S'within'
p843
tp844
a(S'credibility'
p845
tp846
a(S'replete'
p847
tp848
a(S'vapid'
tp849
a(S'slapstick'
p850
tp851
a(S'company'
p852
tp853
a(S'its'
p854
S'target'
p855
S'audience'
p856
tp857
a(S'racial'
p858
tp859
a(S'report'
p860
tp861
a(S'context'
p862
tp863
a(S'clich\xe9s'
tp864
a(S'digital'
p865
tp866
a(S'tragedy'
tp867
a(S'pulse'
p868
tp869
a(S'after-school'
p870
tp871
a(S'amuse'
p872
tp873
a(S'like'
p874
S'one'
p875
tp876
a(S'depends'
p877
tp878
a(S'cloying'
p879
tp880
a(S'british'
p881
tp882
a(S'growing'
p883
tp884
a(S'nowhere'
p885
tp886
a(S'case'
p887
tp888
a(S'slip'
p889
tp890
a(S'side'
p891
tp892
a(S'delights'
tp893
a(S'con'
tp894
a(S'takes'
p895
tp896
a(S'occasional'
p897
tp898
a(S'killer'
p899
tp900
a(S'dancing'
tp901
a(S'wasted'
p902
tp903
a(S'existence'
p904
tp905
a(S'suspect'
tp906
a(S'sophisticated'
p907
tp908
a(S'antwone'
p909
S'fisher'
p910
tp911
a(S'badly'
p912
tp913
a(S'plain'
p914
tp915
a(S'harrowing'
p916
tp917
a(S'documentary'
p918
S'about'
p919
tp920
a(S'his'
p921
S'movie'
p922
tp923
a(S'well-acted'
tp924
a(S'film'
p925
S'from'
p926
tp927
a(g154
g155
tp928
a(S'riveting'
p929
tp930
a(S'save'
tp931
a(S'key'
p932
tp933
a(S'king'
p934
tp935
a(S'pulled'
p936
tp937
a(S'task'
tp938
a(S'captures'
p939
tp940
a(S'coming-of-age'
p941
S'tale'
p942
tp943
a(S'motion'
p944
tp945
a(S'vibrant'
tp946
a(S'matthew'
p947
tp948
a(S'hackneyed'
p949
tp950
a(S'bones'
p951
tp952
a(S'self-conscious'
p953
tp954
a(S'america'
tp955
a(S'hugely'
p956
tp957
a(S'saying'
p958
tp959
a(S'sexual'
p960
tp961
a(S'gorgeous'
tp962
a(S'especially'
S'when'
tp963
a(S'right'
p964
tp965
a(S'energetic'
p966
tp967
a(S'rejected'
p968
tp969
a(S'unsentimental'
p970
tp971
a(S'twist'
p972
tp973
a(S'seagal'
p974
tp975
a(S'design'
p976
tp977
a(S'reminder'
p978
tp979
a(S'mythology'
p980
tp981
a(S'dong'
p982
tp983
a(S'busy'
p984
tp985
a(S'uneven'
p986
tp987
a(S'bow'
p988
S'wow'
p989
tp990
a(S'may'
p991
S'not'
p992
tp993
a(S'felt'
p994
tp995
a(S'installment'
p996
tp997
a(S'magnificent'
tp998
a(S'capable'
p999
tp1000
a(S'recommended'
p1001
tp1002
a(S'possible'
p1003
tp1004
a(S'determined'
tp1005
a(S'politics'
tp1006
a(S'compelling'
p1007
tp1008
a(S'delivering'
p1009
tp1010
a(S'delivers'
p1011
tp1012
a(S'prospect'
p1013
tp1014
a(S'open'
tp1015
a(S'pleasant'
p1016
tp1017
a(S'melodrama'
tp1018
a(S'player'
tp1019
a(S'slight'
p1020
tp1021
a(S'vaguely'
p1022
tp1023
a(S'drive'
p1024
tp1025
a(S'one'
p1026
S'thing'
p1027
tp1028
a(S"i'm"
tp1029
a(S'pratfalls'
tp1030
a(S'pianist'
p1031
tp1032
a(S'etc'
tp1033
a(S'reaction'
p1034
tp1035
a(S'powers'
p1036
tp1037
a(S'aside'
p1038
S'from'
p1039
tp1040
a(S'splendid'
p1041
tp1042
a(S'insight'
tp1043
a(S'sweetly'
p1044
tp1045
a(S'flourishes'
p1046
tp1047
a(S'bland'
p1048
tp1049
a(S'obvious'
p1050
tp1051
a(S'action'
p1052
S'movie'
p1053
tp1054
a(S'yet'
p1055
S'another'
p1056
tp1057
a(S'audience'
p1058
S'members'
p1059
tp1060
a(S'transcend'
tp1061
a(S'fine'
p1062
tp1063
a(S'converted'
tp1064
a(S'impossible'
S'not'
tp1065
a(S'has'
S'become'
tp1066
a(S'barry'
tp1067
a(S'community'
p1068
tp1069
a(S'apart'
p1070
tp1071
a(S'taking'
tp1072
a(S'combination'
p1073
tp1074
a(S'smooth'
p1075
tp1076
a(S'point'
tp1077
a(S'say'
p1078
tp1079
a(S'except'
p1080
tp1081
a(S'pile'
p1082
tp1083
a(S'events'
p1084
tp1085
a(S'entertainment'
S'value'
tp1086
a(S'very'
p1087
tp1088
a(S'intelligent'
p1089
tp1090
a(S'familial'
p1091
tp1092
a(S'you'
p1093
S'might'
p1094
tp1095
a(S'climax'
tp1096
a(S'painfully'
p1097
tp1098
a(S'radical'
p1099
tp1100
a(S'realistic'
p1101
tp1102
a(S'cuteness'
p1103
tp1104
a(S'you'
p1105
S'cannot'
p1106
tp1107
a(S'along'
tp1108
a(S'dirty'
p1109
tp1110
a(S'undoubtedly'
tp1111
a(S'keeps'
p1112
tp1113
a(S'promises'
p1114
tp1115
a(S'brave'
tp1116
a(S'himself'
p1117
tp1118
a(S'mentally'
p1119
tp1120
a(S'solaris'
tp1121
a(S'too'
p1122
S'familiar'
p1123
tp1124
a(S'exhausting'
p1125
tp1126
a(S'feeling'
S'like'
tp1127
a(S'crime'
p1128
S'drama'
p1129
tp1130
a(S'formula'
p1131
tp1132
a(S'beneath'
tp1133
a(S'kong'
p1134
S'action'
p1135
tp1136
a(S'plenty'
p1137
tp1138
a(S'dignity'
tp1139
a(S'todd'
p1140
tp1141
a(S'not'
p1142
S'just'
p1143
tp1144
a(S'engage'
p1145
tp1146
a(S'sweet'
tp1147
a(S'you'
p1148
S'may'
p1149
tp1150
a(S'wallace'
p1151
tp1152
a(S'lights'
p1153
tp1154
a(S'audience'
p1155
tp1156
a(S"it's"
p1157
S'only'
p1158
tp1159
a(S'derrida'
tp1160
a(S'almost'
p1161
S'every'
p1162
tp1163
a(S'collection'
p1164
tp1165
a(S'refreshingly'
p1166
tp1167
a(S'sign'
p1168
tp1169
a(S'psychological'
p1170
S'drama'
p1171
tp1172
a(S'behavior'
p1173
tp1174
a(S'soderbergh'
p1175
tp1176
a(S'shut'
p1177
tp1178
a(S'sci-fi'
p1179
tp1180
a(S'phenomenal'
tp1181
a(S'guilty'
p1182
tp1183
a(S'you'
p1184
S'can'
p1185
tp1186
a(S'haynes'
p1187
tp1188
a(S'succeed'
p1189
tp1190
a(S'optimism'
p1191
tp1192
a(S'winning'
p1193
tp1194
a(S'tribute'
tp1195
a(S'relies'
tp1196
a(S'finds'
p1197
S'its'
p1198
tp1199
a(S'bizarre'
p1200
tp1201
a(S'plays'
p1202
S'like'
tp1203
a(S'regarding'
p1204
tp1205
a(S'visuals'
p1206
tp1207
a(S'conflict'
tp1208
a(S'central'
p1209
tp1210
a(S'mistake'
p1211
tp1212
a(S'manages'
tp1213
a(S'lush'
p1214
tp1215
a(S'homage'
p1216
tp1217
a(S'wonderfully'
p1218
tp1219
a(S'accessible'
tp1220
a(S'throughout'
p1221
tp1222
a(S'feels'
p1223
S'more'
p1224
S'like'
p1225
tp1226
a(S'denying'
tp1227
a(S'lackluster'
p1228
tp1229
a(S'daytime'
p1230
tp1231
a(S'fun'
p1232
tp1233
a(S'que'
p1234
tp1235
a(S'movies'
p1236
S'like'
p1237
tp1238
a(S'relationships'
tp1239
a(S'movies'
p1240
tp1241
a(S'kids'
tp1242
a(S'same'
S'thing'
tp1243
a(S'hard'
S'not'
tp1244
a(S'clich\xe9d'
p1245
tp1246
a(S'dying'
tp1247
a(S'water'
p1248
tp1249
a(S'melodramatic'
p1250
tp1251
a(S'film'
p1252
S'about'
p1253
tp1254
a(S'best'
p1255
S'films'
p1256
tp1257
a(S'roger'
p1258
tp1259
a(S'inner'
p1260
tp1261
a(S'development'
p1262
tp1263
a(S'quality'
p1264
tp1265
a(S'definitely'
p1266
tp1267
a(S'inevitable'
p1268
tp1269
a(S'have'
p1270
S'you'
p1271
tp1272
a(S'run'
p1273
tp1274
a(S'countless'
p1275
tp1276
a(S'medical'
p1277
tp1278
a(S'feature-length'
p1279
tp1280
a(S'understand'
p1281
tp1282
a(S'since'
p1283
tp1284
a(S'utter'
p1285
tp1286
a(S'alternately'
p1287
tp1288
a(S'due'
tp1289
a(S'creatively'
p1290
tp1291
a(S'against'
p1292
tp1293
a(S'charming'
p1294
tp1295
a(S'realized'
tp1296
a(S'human'
p1297
tp1298
a(S'magic'
p1299
tp1300
a(S'machine'
p1301
tp1302
a(S'philosophical'
p1303
tp1304
a(S'author'
p1305
tp1306
a(S'far'
S'from'
tp1307
a(S'large'
p1308
S'cast'
p1309
tp1310
a(S'much'
S'fun'
tp1311
a(S'very'
p1312
S'good'
p1313
tp1314
a(S'interest'
p1315
tp1316
a(S"moore's"
p1317
tp1318
a(S'forgotten'
p1319
tp1320
a(S'disappointed'
tp1321
a(S'center'
tp1322
a(S'subject'
p1323
S'matter'
p1324
tp1325
a(S'ease'
p1326
tp1327
a(S'ability'
p1328
tp1329
a(S"i've"
p1330
tp1331
a(S'moment'
p1332
tp1333
a(S'brother'
p1334
tp1335
a(S'mixed'
p1336
tp1337
a(S'gags'
p1338
tp1339
a(S'honest'
p1340
tp1341
a(S'elegantly'
p1342
tp1343
a(S'raises'
tp1344
a(S'santa'
p1345
tp1346
a(S'inspiring'
tp1347
a(S'plotting'
p1348
tp1349
a(S'club'
p1350
tp1351
a(S'scratch'
p1352
tp1353
a(S'unfunny'
p1354
tp1355
a(S'price'
p1356
tp1357
a(S'adams'
p1358
tp1359
a(S'lets'
p1360
S'her'
p1361
tp1362
a(S'human'
S'spirit'
tp1363
a(S'insomnia'
p1364
tp1365
a(S'madness'
p1366
tp1367
a(S'never'
p1368
S'lets'
p1369
tp1370
a(S'honestly'
p1371
tp1372
a(S'hill'
p1373
tp1374
a(S'living'
p1375
tp1376
a(S'old-fashioned'
p1377
tp1378
a(S'lan'
tp1379
a(S'still'
p1380
S'feels'
p1381
tp1382
a(S'type'
p1383
tp1384
a(S'media'
p1385
tp1386
a(S'treasure'
p1387
tp1388
a(S'assured'
p1389
tp1390
a(S'hit'
p1391
S'theaters'
p1392
tp1393
a(S'century'
tp1394
a(S'mild'
p1395
tp1396
a(S'slick'
p1397
tp1398
a(S'expected'
p1399
tp1400
a(S'humor'
p1401
tp1402
a(S'nothing'
p1403
S'more'
p1404
tp1405
a(S'awfully'
p1406
tp1407
a(S'absolutely'
p1408
tp1409
a(S"couldn't"
p1410
tp1411
a(S'forced'
p1412
tp1413
a(S'kind'
tp1414
a(S'taste'
p1415
tp1416
a(S'exercise'
p1417
tp1418
a(S'disbelief'
tp1419
a(S'turn'
p1420
tp1421
a(S'feathers'
p1422
tp1423
a(S'been'
p1424
g480
tp1425
a(S'feardotcom'
p1426
tp1427
a(S'freaky'
tp1428
a(S'hate'
tp1429
a(S'elements'
p1430
tp1431
a(S'nor'
p1432
tp1433
a(S'old'
p1434
tp1435
a(S'underlying'
p1436
tp1437
a(S'demons'
p1438
tp1439
a(S'glory'
p1440
tp1441
a(S'keep'
tp1442
a(S'perspective'
tp1443
a(S'document'
p1444
tp1445
a(S'transcends'
p1446
tp1447
a(S'frustrating'
p1448
tp1449
a(S"it's"
p1450
S'all'
p1451
tp1452
a(S'piccoli'
p1453
tp1454
a(S'refreshing'
tp1455
a(S'leaks'
p1456
tp1457
a(S'convincing'
p1458
tp1459
a(S'profound'
tp1460
a(S'amount'
p1461
tp1462
a(S'back'
p1463
tp1464
a(S'subjects'
p1465
tp1466
a(S'retread'
p1467
tp1468
a(S'marriage'
p1469
tp1470
a(S'bullock'
p1471
tp1472
a(S'scenery'
p1473
tp1474
a(S'editing'
p1475
tp1476
a(S'cannes'
p1477
tp1478
a(S'john'
p1479
S'woo'
p1480
tp1481
a(S'serving'
p1482
tp1483
a(S'significant'
p1484
tp1485
a(S'concert'
tp1486
a(S'holds'
p1487
tp1488
a(S'extraordinary'
tp1489
a(S'flawed'
tp1490
a(S'young'
p1491
tp1492
a(S'served'
p1493
tp1494
a(S'kills'
p1495
tp1496
a(S'wholly'
p1497
tp1498
a(S'mediocrity'
p1499
tp1500
a(S'not'
p1501
S'only'
p1502
tp1503
a(S'really'
p1504
S'bad'
p1505
tp1506
a(S'ticket'
p1507
tp1508
a(S'engaging'
S'film'
tp1509
a(S"haven't"
p1510
tp1511
a(S'only'
p1512
S'thing'
p1513
tp1514
a(S"isn't"
p1515
tp1516
a(S'left'
p1517
tp1518
a(S'third'
tp1519
a(S'twice'
p1520
tp1521
a(S'your'
S'stomach'
p1522
tp1523
a(S'frailty'
p1524
tp1525
a(S'despair'
tp1526
a(S'artsy'
p1527
tp1528
a(S'who'
p1529
S'would'
p1530
tp1531
a(S'truly'
p1532
tp1533
a(S'thin'
p1534
tp1535
a(g232
tp1536
a(S'find'
p1537
tp1538
a(S'irresistible'
tp1539
a(S'weight'
p1540
tp1541
a(S'marvelous'
tp1542
a(S'hybrid'
p1543
tp1544
a(S'landmark'
p1545
tp1546
a(S'drawn'
p1547
tp1548
a(S'film'
p1549
S'has'
p1550
tp1551
a(S'blue'
p1552
tp1553
a(g1537
g236
tp1554
a(S'student'
p1555
tp1556
a(S'without'
p1557
S'any'
p1558
tp1559
a(S'sin'
tp1560
a(S'beat'
p1561
tp1562
a(S'stimulating'
p1563
tp1564
a(S'look'
p1565
tp1566
a(S'spite'
tp1567
a(S'make'
p1568
S'you'
p1569
tp1570
a(S'off-kilter'
tp1571
a(S'dear'
p1572
tp1573
a(S'like'
g247
tp1574
a(S'think'
p1575
tp1576
a(S'spy'
S'kids'
tp1577
a(S'tones'
tp1578
a(S'apparently'
p1579
tp1580
a(S'crack'
p1581
tp1582
a(S"it's"
p1583
S'too'
p1584
tp1585
a(S'than'
p1586
tp1587
a(S'very'
S'much'
p1588
tp1589
a(S'sun'
p1590
tp1591
a(S'feel-good'
p1592
tp1593
a(S'simplistic'
p1594
tp1595
a(S'messages'
p1596
tp1597
a(S'terror'
p1598
tp1599
a(S'castro'
p1600
tp1601
a(S"there's"
p1602
g153
g154
g155
tp1603
a(S'adult'
tp1604
a(S'jones'
p1605
tp1606
a(S'martial'
p1607
tp1608
a(S'delivered'
tp1609
a(S'hardly'
p1610
tp1611
a(S'generation'
p1612
tp1613
a(S'years'
p1614
S'ago'
p1615
tp1616
a(S'rap'
p1617
tp1618
a(S'talent'
p1619
tp1620
a(S'though'
tp1621
a(S'full'
p1622
S'frontal'
p1623
tp1624
a(S'handful'
tp1625
a(S'cross-cultural'
p1626
tp1627
a(S'influence'
tp1628
a(S"he's"
tp1629
a(S'fierce'
p1630
tp1631
a(S'undone'
tp1632
a(S'impressions'
p1633
tp1634
a(S'master'
p1635
tp1636
a(S'fine'
p1637
S'acting'
p1638
tp1639
a(S'kung'
p1640
tp1641
a(S'twists'
p1642
tp1643
a(S'payoff'
tp1644
a(S'not'
p1645
S'sure'
p1646
tp1647
a(S'witty'
p1648
tp1649
a(S'rambling'
p1650
tp1651
a(S'walls'
p1652
tp1653
a(S'grasp'
p1654
tp1655
a(S'subversive'
p1656
tp1657
a(S'rarely'
p1658
S'been'
p1659
tp1660
a(S'may'
p1661
tp1662
a(S'rent'
p1663
tp1664
a(S'van'
p1665
tp1666
a(S'sham'
p1667
tp1668
a(S'pay'
tp1669
a(S'huppert'
p1670
tp1671
a(S'loyal'
p1672
tp1673
a(S'surprisingly'
p1674
tp1675
a(S'not'
p1676
S'too'
p1677
tp1678
a(S'pretty'
S'woman'
p1679
tp1680
a(S'poor'
p1681
tp1682
a(S'downright'
p1683
tp1684
a(S'via'
p1685
tp1686
a(S'movie'
p1687
S'ever'
p1688
tp1689
a(S'hero'
p1690
tp1691
a(S'shake'
p1692
tp1693
a(S'what'
tp1694
a(S"don't"
p1695
tp1696
a(S'charmless'
p1697
tp1698
a(S'avoids'
p1699
tp1700
a(S'serviceable'
p1701
tp1702
a(g489
tp1703
a(S'menace'
p1704
tp1705
a(S'whose'
p1706
tp1707
a(S'heaven'
tp1708
a(S'una'
p1709
tp1710
a(S'automatically'
p1711
tp1712
a(S'plotted'
p1713
tp1714
a(S'ably'
p1715
tp1716
a(S"who's"
p1717
tp1718
a(g1392
tp1719
a(S'hopes'
p1720
tp1721
a(S'without'
tp1722
a(S'overly'
p1723
tp1724
a(S'suck'
p1725
tp1726
a(S'movie'
p1727
S'has'
p1728
tp1729
a(S'act'
p1730
tp1731
a(S'rather'
p1732
tp1733
a(S'his'
p1734
tp1735
a(S'charm'
p1736
tp1737
a(S'devastating'
p1738
tp1739
a(S'bring'
p1740
tp1741
a(S'popcorn'
p1742
tp1743
a(S'performance'
p1744
tp1745
a(S'bittersweet'
p1746
tp1747
a(S'saccharine'
p1748
tp1749
a(S'flailing'
p1750
tp1751
a(S'main'
p1752
tp1753
a(S'rewards'
p1754
tp1755
a(S'across'
p1756
tp1757
a(S'developed'
p1758
tp1759
a(S'adds'
p1760
tp1761
a(S'pretends'
tp1762
a(S'mesmerizing'
p1763
tp1764
a(S'only'
S'way'
tp1765
a(S'faults'
p1766
tp1767
a(S'watch'
tp1768
a(S'remain'
p1769
tp1770
a(S'nonsense'
p1771
tp1772
a(S'unfolds'
p1773
tp1774
a(S'goes'
p1775
S'nowhere'
p1776
tp1777
a(S'storyline'
p1778
tp1779
a(S'each'
p1780
S'other'
tp1781
a(S'sort'
p1782
tp1783
a(S'match'
p1784
tp1785
a(S'basic'
p1786
tp1787
a(S"story's"
p1788
tp1789
a(S'secrets'
tp1790
a(S'crash'
tp1791
a(S'fantasies'
p1792
tp1793
a(S'movies'
p1794
S'have'
p1795
tp1796
a(S'cinema'
p1797
tp1798
a(S'vampire'
p1799
tp1800
a(S'biggest'
p1801
tp1802
a(S'has'
p1803
S'its'
p1804
tp1805
a(S'sit'
S'through'
tp1806
a(S'out'
p1807
S'its'
p1808
tp1809
a(S'its'
S'audience'
tp1810
a(S'capture'
p1811
tp1812
a(S'presentation'
p1813
tp1814
a(S'myself'
p1815
tp1816
a(S'notion'
tp1817
a(S'process'
p1818
tp1819
a(S'filmed'
tp1820
a(S'drama'
p1821
S'about'
p1822
tp1823
a(S'lofty'
p1824
tp1825
a(S'hitting'
p1826
tp1827
a(S'every'
S'joke'
tp1828
a(S'players'
p1829
tp1830
a(S'have'
p1831
S'ever'
p1832
tp1833
a(S'soulful'
p1834
tp1835
a(S'parents'
p1836
tp1837
a(S'killing'
p1838
tp1839
a(S'visceral'
p1840
tp1841
a(S'goes'
p1842
tp1843
a(S'opportunity'
tp1844
a(S'trite'
tp1845
a(S"doesn't"
p1846
S'have'
p1847
S'much'
p1848
tp1849
a(S'pokes'
p1850
tp1851
a(S'heard'
p1852
tp1853
a(S'romantic'
p1854
g614
tp1855
a(S'after'
p1856
tp1857
a(S'monsoon'
p1858
tp1859
a(S'mile'
p1860
tp1861
a(S'teacher'
p1862
tp1863
a(S'eight'
p1864
tp1865
a(S'loses'
tp1866
a(S'thing'
p1867
tp1868
a(S'chelsea'
p1869
tp1870
a(S'psychological'
p1871
S'thriller'
tp1872
a(S'humanity'
p1873
tp1874
a(S'importance'
tp1875
a(g29
tp1876
a(S'talk'
tp1877
a(S'certain'
p1878
tp1879
a(S'wickedly'
p1880
tp1881
a(g514
S'day'
p1882
tp1883
a(S'puzzle'
p1884
tp1885
a(S'leave'
tp1886
a(S'film'
S'does'
tp1887
a(S'off'
p1888
S'more'
p1889
tp1890
a(S'balanced'
p1891
tp1892
a(S'strange'
p1893
tp1894
a(S'documentaries'
tp1895
a(S'horror'
p1896
S'movie'
p1897
tp1898
a(S'serial'
p1899
tp1900
a(S'desperately'
p1901
tp1902
a(S'dialogue'
p1903
tp1904
a(S'postcard'
tp1905
a(S'witness'
p1906
tp1907
a(S'study'
p1908
tp1909
a(S'lacking'
p1910
tp1911
a(S'about'
p1912
g1026
g1027
tp1913
a(S'same'
p1914
S'way'
tp1915
a(S'manipulative'
p1916
tp1917
a(S'offering'
tp1918
a(S'white'
p1919
tp1920
a(S'rules'
p1921
tp1922
a(S'chills'
p1923
tp1924
a(S'well-meaning'
p1925
tp1926
a(S'impressed'
tp1927
a(S'feel'
p1928
tp1929
a(S'culkin'
p1930
tp1931
a(g725
g1815
tp1932
a(S'xxx'
p1933
tp1934
a(S'b-movie'
p1935
tp1936
a(S'scattered'
p1937
tp1938
a(S'space'
p1939
tp1940
a(S'directorial'
p1941
S'debut'
p1942
tp1943
a(S'precious'
p1944
tp1945
a(S'supposed'
tp1946
a(S'moves'
p1947
tp1948
a(S'performance'
p1949
S'from'
p1950
tp1951
a(g310
S'mystery'
p1952
tp1953
a(S'movie'
S'can'
tp1954
a(S'lots'
tp1955
a(S'bleak'
p1956
tp1957
a(S'who'
p1958
S'have'
p1959
tp1960
a(S"it's"
S'like'
tp1961
a(S'fantasy'
p1962
tp1963
a(S'watching'
p1964
tp1965
a(S'reason'
p1966
tp1967
a(S'soul'
p1968
tp1969
a(S'rising'
p1970
tp1971
a(S'howard'
p1972
tp1973
a(S'lives'
p1974
tp1975
a(S'big-screen'
p1976
tp1977
a(S'category'
tp1978
a(S'utterly'
p1979
tp1980
a(S'changes'
p1981
tp1982
a(S'escape'
p1983
tp1984
a(S'defies'
p1985
tp1986
a(S'win'
p1987
tp1988
a(S'wry'
p1989
tp1990
a(g1854
tp1991
a(S'measured'
tp1992
a(S'you'
p1993
S'leave'
p1994
tp1995
a(S"disney's"
p1996
tp1997
a(S'wanted'
tp1998
a(S'line'
p1999
S'between'
p2000
tp2001
a(S'falls'
p2002
S'short'
tp2003
a(S'downbeat'
tp2004
a(g542
tp2005
a(S'counterparts'
p2006
tp2007
a(S'oscar'
p2008
tp2009
a(S'simply'
p2010
S'too'
p2011
tp2012
a(S'forget'
tp2013
a(S'filmmakers'
p2014
tp2015
a(S'possibly'
p2016
tp2017
a(S'entry'
p2018
tp2019
a(S'suspense'
p2020
tp2021
a(S'established'
p2022
tp2023
a(S'character'
p2024
g1262
tp2025
a(S'narc'
tp2026
a(S'familiar'
p2027
tp2028
a(S'what'
p2029
S'could'
p2030
tp2031
a(S'after'
p2032
S'next'
p2033
tp2034
a(S'wearing'
p2035
tp2036
a(S'laughs'
p2037
tp2038
a(S'pinocchio'
p2039
tp2040
a(S'suspenseful'
tp2041
a(S'slowly'
p2042
tp2043
a(S'bit'
p2044
tp2045
a(S'disappointment'
tp2046
a(S'sick'
p2047
tp2048
a(S"it's"
S'simply'
tp2049
a(S'energy'
tp2050
a(S'clearly'
tp2051
a(S'vivid'
p2052
tp2053
a(S'wins'
p2054
tp2055
a(S'liberal'
tp2056
a(S'bunch'
tp2057
a(S'sum'
tp2058
a(S'elsewhere'
p2059
tp2060
a(S'director'
p2061
tp2062
a(S'just'
p2063
tp2064
a(S'have'
p2065
S'come'
p2066
tp2067
a(S'days'
p2068
tp2069
a(g815
S'project'
p2070
tp2071
a(S'spirit'
p2072
tp2073
a(S'air'
p2074
tp2075
a(S'imitation'
p2076
tp2077
a(S'impact'
p2078
tp2079
a(g155
tp2080
a(S'bruce'
p2081
tp2082
a(S'house'
p2083
tp2084
a(S'sheer'
p2085
tp2086
a(S'his'
p2087
S'latest'
p2088
tp2089
a(S'excitement'
p2090
tp2091
a(S'weak'
p2092
tp2093
a(S'characterizations'
p2094
tp2095
a(S'really'
p2096
S'good'
p2097
tp2098
a(S'fears'
p2099
tp2100
a(S'too'
S'bad'
tp2101
a(S'frequently'
p2102
tp2103
a(S'its'
p2104
g1766
tp2105
a(S'observations'
p2106
tp2107
a(S'fare'
tp2108
a(S'deja'
tp2109
a(S'upper'
p2110
tp2111
a(S'solid'
p2112
tp2113
a(S'suspend'
p2114
tp2115
a(S'situations'
p2116
tp2117
a(S"there's"
p2118
S'not'
p2119
tp2120
a(S'outing'
p2121
tp2122
a(S'four'
p2123
tp2124
a(S'most'
tp2125
a(S'show'
tp2126
a(g1380
g1381
S'like'
p2127
tp2128
a(S'niro'
p2129
tp2130
a(S'deuces'
p2131
tp2132
a(S'set-up'
p2133
tp2134
a(S'acknowledges'
tp2135
a(S'superior'
p2136
tp2137
a(S'just'
p2138
S"doesn't"
p2139
tp2140
a(S'max'
p2141
tp2142
a(S'its'
S'lack'
tp2143
a(S'big'
S'screen'
tp2144
a(S'jacquot'
p2145
tp2146
a(S'moviegoing'
p2147
tp2148
a(S'ugly'
p2149
tp2150
a(S'powerful'
p2151
tp2152
a(S'well-crafted'
p2153
tp2154
a(S'whole'
p2155
S'lot'
p2156
tp2157
a(S'surface'
tp2158
a(S'follow'
p2159
tp2160
a(S'inconsistencies'
p2161
tp2162
a(S'beyond'
tp2163
a(S'wondering'
tp2164
a(S'rental'
p2165
tp2166
a(S'boring'
p2167
tp2168
a(S'followed'
p2169
tp2170
a(S"woo's"
p2171
tp2172
a(S'film'
p2173
S'industry'
p2174
tp2175
a(S'storytelling'
tp2176
a(g1510
S'seen'
p2177
tp2178
a(S'testament'
tp2179
a(S'cost'
p2180
tp2181
a(S"it's"
p2182
S'far'
p2183
tp2184
a(S"year's"
p2185
S'most'
p2186
tp2187
a(S'requires'
p2188
tp2189
a(S'rooting'
p2190
tp2191
a(S"year's"
p2192
S'best'
p2193
tp2194
a(S'problems'
p2195
tp2196
a(S'blood'
p2197
tp2198
a(S'please'
tp2199
a(S'soft'
p2200
tp2201
a(S'tragedies'
p2202
tp2203
a(S'asks'
p2204
tp2205
a(S'bourne'
tp2206
a(S'travails'
tp2207
a(S'willing'
p2208
tp2209
a(g330
tp2210
a(S'you'
p2211
g290
tp2212
a(S'yes'
tp2213
a(S'odd'
p2214
tp2215
a(S'hit'
p2216
tp2217
a(S'care'
p2218
tp2219
a(S'setup'
tp2220
a(S'movie'
p2221
S"isn't"
p2222
tp2223
a(S'david'
p2224
tp2225
a(S'films'
p2226
tp2227
a(S'important'
p2228
tp2229
a(S'birthday'
p2230
S'girl'
p2231
tp2232
a(S'see'
S'where'
tp2233
a(S'too'
p2234
S'long'
p2235
tp2236
a(S'faced'
p2237
tp2238
a(S'providing'
p2239
tp2240
a(S'away'
p2241
S'from'
p2242
tp2243
a(S'decades'
tp2244
a(S'drawing'
tp2245
a(S'cut'
p2246
tp2247
a(S'view'
p2248
tp2249
a(S'heartfelt'
p2250
tp2251
a(S'woo'
tp2252
a(S'body'
p2253
tp2254
a(S"it's"
S'rare'
p2255
tp2256
a(S'hot'
tp2257
a(S'arts'
p2258
tp2259
a(S'unnecessary'
p2260
tp2261
a(S'artistic'
p2262
tp2263
a(S'friends'
p2264
tp2265
a(S'thinks'
tp2266
a(S'just'
p2267
S'too'
p2268
tp2269
a(S'its'
p2270
S'title'
p2271
S'character'
p2272
tp2273
a(S'experimentation'
tp2274
a(S'greater'
p2275
tp2276
a(S'hours'
p2277
tp2278
a(S'than'
p2279
S'what'
p2280
tp2281
a(S'raw'
p2282
tp2283
a(S'had'
p2284
tp2285
a(S'opening'
p2286
tp2287
a(S'moving'
p2288
tp2289
a(S'result'
p2290
tp2291
a(S'far'
p2292
g264
g265
tp2293
a(S'closely'
p2294
tp2295
a(S'root'
tp2296
a(g569
g1912
tp2297
a(S'remembered'
tp2298
a(S'came'
tp2299
a(S'based'
tp2300
a(S'its'
p2301
S'plot'
p2302
tp2303
a(S'lead'
p2304
tp2305
a(S'whom'
p2306
tp2307
a(S'misses'
p2308
tp2309
a(S'callar'
p2310
tp2311
a(S'path'
p2312
tp2313
a(S'walk'
tp2314
a(S'cleverness'
tp2315
a(S'allow'
p2316
tp2317
a(S'honesty'
p2318
tp2319
a(S'murky'
tp2320
a(S'could'
p2321
tp2322
a(S'harder'
p2323
tp2324
a(S'movie'
p2325
S'without'
p2326
tp2327
a(S'train'
p2328
tp2329
a(S'inherent'
p2330
tp2331
a(S'plot'
tp2332
a(S'called'
p2333
tp2334
a(S'color'
p2335
tp2336
a(S'strength'
p2337
tp2338
a(S'joy'
p2339
tp2340
a(S'typical'
p2341
tp2342
a(S'accents'
tp2343
a(S'sequel'
tp2344
a(S'nair'
p2345
tp2346
a(S'not'
p2347
S'really'
p2348
tp2349
a(g344
g345
tp2350
a(S'sitting'
p2351
S'through'
tp2352
a(S'listen'
tp2353
a(S'maryam'
p2354
tp2355
a(S'cameos'
tp2356
a(S'effort'
p2357
tp2358
a(S'resembles'
p2359
tp2360
a(S'seven'
p2361
tp2362
a(S"that's"
p2363
S'been'
p2364
tp2365
a(S'first-time'
p2366
S'director'
p2367
tp2368
a(S'contrivances'
p2369
tp2370
a(S'out'
p2371
tp2372
a(S'generates'
tp2373
a(S'settles'
p2374
tp2375
a(S'crowd'
p2376
tp2377
a(S'good'
p2378
S'deal'
p2379
tp2380
a(S'format'
p2381
tp2382
a(S'real-life'
p2383
tp2384
a(S'scenes'
p2385
tp2386
a(S'real'
p2387
S'life'
p2388
tp2389
a(S'her'
tp2390
a(S'mckay'
p2391
tp2392
a(S'curiosity'
tp2393
a(S'austin'
p2394
tp2395
a(S'inoffensive'
p2396
tp2397
a(S'relate'
p2398
tp2399
a(S'pumpkin'
p2400
tp2401
a(S'zone'
p2402
tp2403
a(S'action'
S'sequences'
p2404
tp2405
a(S'morvern'
p2406
tp2407
a(S'endeavor'
p2408
tp2409
a(S'amusing'
p2410
tp2411
a(S'poem'
p2412
tp2413
a(S'versus'
p2414
tp2415
a(S'illness'
p2416
tp2417
a(S'captured'
tp2418
a(S'lucky'
p2419
S'break'
p2420
tp2421
a(g1522
tp2422
a(S'feels'
p2423
S'less'
p2424
tp2425
a(S'constantly'
p2426
tp2427
a(S'emotionally'
p2428
tp2429
a(g1831
g1832
S'seen'
tp2430
a(S'seinfeld'
tp2431
a(S'poetry'
tp2432
a(S'base'
p2433
tp2434
a(S'director'
p2435
S'michael'
p2436
tp2437
a(S'imax'
p2438
tp2439
a(S'passionate'
p2440
tp2441
a(S'collectively'
tp2442
a(S'drab'
p2443
tp2444
a(S'term'
tp2445
a(S'intrigue'
tp2446
a(S'big'
p2447
tp2448
a(S'overcome'
p2449
tp2450
a(S'limp'
tp2451
a(S'late'
p2452
tp2453
a(g1253
S'one'
p2454
tp2455
a(S'comes'
p2456
S'off'
p2457
tp2458
a(S'its'
S'own'
p2459
S'right'
p2460
tp2461
a(S'outbursts'
p2462
tp2463
a(S'further'
p2464
tp2465
a(S'impression'
p2466
tp2467
a(S'low-budget'
p2468
tp2469
a(S'afternoon'
p2470
tp2471
a(S'pure'
p2472
tp2473
a(S'who'
p2474
S"can't"
p2475
tp2476
a(S'sadness'
tp2477
a(S'equally'
p2478
tp2479
a(S'rousing'
p2480
tp2481
a(S"birot's"
p2482
tp2483
a(S"let's"
p2484
tp2485
a(S'chinese'
p2486
tp2487
a(S'pretension'
p2488
tp2489
a(g2139
S'make'
p2490
tp2491
a(S'cultural'
p2492
tp2493
a(S'equal'
p2494
tp2495
a(S'effective'
p2496
tp2497
a(S'choices'
p2498
tp2499
a(S'made'
p2500
S'about'
p2501
tp2502
a(S"children's"
p2503
tp2504
a(S'contrived'
p2505
tp2506
a(S'cuts'
p2507
tp2508
a(S'war'
p2509
tp2510
a(S'mainly'
p2511
tp2512
a(S'sentimental'
p2513
tp2514
a(S'tight'
p2515
tp2516
a(S'photography'
p2517
tp2518
a(S'would'
p2519
g20
g21
tp2520
a(S'fisher'
p2521
tp2522
a(S'bore'
tp2523
a(S'treat'
p2524
tp2525
a(S'boasts'
p2526
tp2527
a(S'perdition'
p2528
tp2529
a(S'you'
p2530
S'think'
p2531
tp2532
a(S"wasn't"
p2533
tp2534
a(S'viewed'
tp2535
a(S"director's"
p2536
tp2537
a(S'moore'
p2538
tp2539
a(S'produced'
p2540
tp2541
a(S'pleasures'
p2542
tp2543
a(S'devoid'
p2544
tp2545
a(S'kinky'
p2546
tp2547
a(S'intensity'
p2548
tp2549
a(S'strong'
tp2550
a(S'cannot'
p2551
tp2552
a(S'warmth'
tp2553
a(S'promise'
p2554
tp2555
a(S'suffered'
p2556
tp2557
a(S"that's"
p2558
g1676
tp2559
a(S'excellent'
p2560
tp2561
a(S'younger'
p2562
tp2563
a(S'scale'
p2564
tp2565
a(S'hilarity'
p2566
tp2567
a(S'unconvincing'
p2568
tp2569
a(S'fish'
p2570
tp2571
a(S'russell'
p2572
tp2573
a(S'safe'
p2574
tp2575
a(S'kissinger'
p2576
tp2577
a(S'record'
tp2578
a(S'james'
p2579
S'bond'
p2580
tp2581
a(S'lets'
p2582
tp2583
a(S'however'
tp2584
a(S'flaws'
p2585
tp2586
a(S'co-writer'
p2587
tp2588
a(S'whale'
tp2589
a(S'horror'
p2590
S'film'
p2591
tp2592
a(S'tension'
tp2593
a(g2230
tp2594
a(S'your'
p2595
tp2596
a(S'jolting'
p2597
tp2598
a(g426
S'about'
p2599
tp2600
a(S'saving'
tp2601
a(S'trashy'
p2602
tp2603
a(S'required'
p2604
tp2605
a(S'brooklyn'
p2606
tp2607
a(S'numerous'
p2608
tp2609
a(S'occasionally'
p2610
S'funny'
tp2611
a(S'has'
p2612
S'made'
p2613
tp2614
a(S'bow'
p2615
tp2616
a(S"it's"
g1782
tp2617
a(S'premise'
p2618
tp2619
a(S'public'
p2620
tp2621
a(S'triumph'
tp2622
a(S'iranian'
p2623
tp2624
a(S'had'
p2625
S'more'
p2626
tp2627
a(S'creates'
p2628
tp2629
a(g1732
S'than'
p2630
tp2631
a(S'adolescent'
p2632
tp2633
a(S'hopkins'
p2634
tp2635
a(S'near'
p2636
tp2637
a(S'scene'
p2638
tp2639
a(S'possibility'
tp2640
a(S'meditation'
p2641
tp2642
a(S'come'
p2643
S'from'
p2644
tp2645
a(S'affair'
p2646
tp2647
a(S'hartley'
p2648
tp2649
a(S'memory'
p2650
tp2651
a(S'technical'
p2652
tp2653
a(S'because'
p2654
tp2655
a(S'aspects'
p2656
tp2657
a(S'bother'
p2658
tp2659
a(S'failure'
tp2660
a(S'well'
tp2661
a(S'too'
p2662
tp2663
a(S'its'
p2664
S'characters'
p2665
tp2666
a(S'lost'
p2667
tp2668
a(S'almost'
p2669
tp2670
a(S'animated'
p2671
tp2672
a(S'never'
p2673
S'been'
p2674
tp2675
a(S'aging'
p2676
tp2677
a(S'none'
tp2678
a(S'having'
p2679
tp2680
a(S'designed'
tp2681
a(S'terrifying'
p2682
tp2683
a(S'salton'
p2684
S'sea'
tp2685
a(S'fatal'
p2686
g252
tp2687
a(S'basis'
tp2688
a(S'recent'
S'memory'
tp2689
a(S'genre'
p2690
tp2691
a(S'future'
tp2692
a(S'believable'
p2693
tp2694
a(S'jonah'
tp2695
a(S'line'
p2696
tp2697
a(S'screenplay'
p2698
tp2699
a(S'nomination'
tp2700
a(S'makers'
p2701
tp2702
a(S'used'
p2703
tp2704
a(S'minute'
p2705
tp2706
a(S'infectious'
p2707
tp2708
a(S'those'
p2709
S'who'
p2710
tp2711
a(S'blade'
p2712
tp2713
a(S'dog'
p2714
tp2715
a(S'scope'
tp2716
a(S'dragon'
p2717
tp2718
a(S'friday'
p2719
g2032
tp2720
a(S'cop'
p2721
tp2722
a(S'sadism'
tp2723
a(S'playwright'
p2724
tp2725
a(S'directs'
p2726
tp2727
a(S'giving'
p2728
tp2729
a(S'tool'
p2730
tp2731
a(S'even'
tp2732
a(S'fraser'
tp2733
a(S'start'
p2734
tp2735
a(S'satire'
p2736
tp2737
a(S'bored'
p2738
tp2739
a(S'turning'
tp2740
a(S'franchise'
tp2741
a(g2459
g2460
tp2742
a(S'spy'
tp2743
a(S"kaufman's"
p2744
tp2745
a(g569
tp2746
a(S'concept'
p2747
tp2748
a(S'episode'
p2749
tp2750
a(S'unless'
p2751
tp2752
a(S"wouldn't"
p2753
tp2754
a(S'your'
p2755
S'time'
p2756
tp2757
a(S'crude'
p2758
tp2759
a(S'part'
p2760
tp2761
a(S"man's"
p2762
tp2763
a(S'purpose'
p2764
tp2765
a(S'worry'
p2766
S'about'
p2767
tp2768
a(S'assassin'
p2769
tp2770
a(g2139
tp2771
a(S'unrealized'
p2772
tp2773
a(S'example'
tp2774
a(S'journalism'
p2775
tp2776
a(S'denial'
tp2777
a(S'still'
S'manages'
tp2778
a(S'marvel'
p2779
tp2780
a(S'matinee'
p2781
tp2782
a(S'knowledge'
tp2783
a(S'apparent'
p2784
tp2785
a(S'secret'
p2786
tp2787
a(g1403
g1404
S'than'
p2788
tp2789
a(S'forcefully'
p2790
tp2791
a(S'pulls'
p2792
tp2793
a(S'actors'
tp2794
a(S'nation'
p2795
tp2796
a(S'should'
p2797
S'never'
p2798
tp2799
a(S'irish'
p2800
tp2801
a(g459
tp2802
a(S'guys'
p2803
tp2804
a(S'gender'
p2805
tp2806
a(S'brutal'
tp2807
a(S'bite'
p2808
tp2809
a(S'few'
p2810
S'films'
p2811
tp2812
a(S'astonishing'
tp2813
a(S'fence'
p2814
tp2815
a(S'kosminsky'
tp2816
a(S'texture'
p2817
tp2818
a(S'surprise'
p2819
tp2820
a(S'terrific'
p2821
tp2822
a(S'lovely'
p2823
tp2824
a(S'loss'
p2825
tp2826
a(S'whole'
p2827
tp2828
a(S'year'
tp2829
a(S'roll'
p2830
tp2831
a(S'like'
S'watching'
tp2832
a(S'pow'
p2833
tp2834
a(S'genuine'
p2835
tp2836
a(S'tale'
p2837
tp2838
a(S'fit'
p2839
tp2840
a(S'consistently'
p2841
tp2842
a(S'fairly'
p2843
tp2844
a(S'fail'
p2845
tp2846
a(S'stone'
p2847
tp2848
a(S'place'
tp2849
a(S'celebrates'
p2850
tp2851
a(S'issues'
tp2852
a(S'has'
p2853
S'just'
p2854
tp2855
a(S"it's"
p2856
S'worth'
p2857
tp2858
a(S'subtly'
p2859
tp2860
a(S'destination'
p2861
tp2862
a(S'calculating'
p2863
tp2864
a(S'see'
S'scratch'
tp2865
a(S'people'
p2866
tp2867
a(S'work'
p2868
tp2869
a(S'good-looking'
tp2870
a(S'also'
S'one'
tp2871
a(S'actually'
p2872
tp2873
a(S'gore'
p2874
tp2875
a(S'moments'
p2876
tp2877
a(S'choppy'
p2878
tp2879
a(S'had'
p2880
S'been'
p2881
tp2882
a(S'bits'
p2883
tp2884
a(g1336
S'bag'
p2885
tp2886
a(S'runs'
p2887
tp2888
a(S'scare'
p2889
tp2890
a(S'date'
p2891
tp2892
a(S'speaking'
p2893
tp2894
a(S'character'
p2895
S'study'
p2896
tp2897
a(S'fool'
p2898
tp2899
a(S'more'
p2900
S'time'
p2901
tp2902
a(S'call'
p2903
tp2904
a(g1089
S'person'
p2905
tp2906
a(S'forces'
p2907
tp2908
a(S'teenage'
p2909
tp2910
a(S'spends'
tp2911
a(S'somewhere'
tp2912
a(S'got'
p2913
tp2914
a(S'halfway'
p2915
tp2916
a(S'away'
p2917
tp2918
a(S'soundtrack'
p2919
tp2920
a(S'depraved'
p2921
tp2922
a(S'jealousy'
tp2923
a(S'dinner'
p2924
tp2925
a(S'anything'
p2926
tp2927
a(S'ultimately'
tp2928
a(S'you'
S'want'
tp2929
a(S'first-rate'
p2930
tp2931
a(S'couple'
p2932
tp2933
a(S'talented'
p2934
tp2935
a(S'project'
p2936
tp2937
a(S'manage'
p2938
tp2939
a(S'deeply'
p2940
tp2941
a(S'harmless'
tp2942
a(S'tears'
tp2943
a(S'gently'
p2944
tp2945
a(S"we're"
p2946
tp2947
a(S'low-key'
p2948
tp2949
a(S'special'
p2950
S'effects'
p2951
tp2952
a(S'loneliness'
tp2953
a(g460
tp2954
a(S'home'
S'movie'
tp2955
a(S'chill'
p2956
tp2957
a(S'challenging'
p2958
tp2959
a(S"cinema's"
p2960
tp2961
a(S'holy'
p2962
tp2963
a(S'feast'
p2964
tp2965
a(S'bouncy'
p2966
tp2967
a(S'minds'
p2968
tp2969
a(S'weeks'
p2970
tp2971
a(S'count'
p2972
tp2973
a(S'chemistry'
p2974
tp2975
a(S'approach'
p2976
tp2977
a(S'manipulation'
tp2978
a(S'relentless'
tp2979
a(S'laughing'
p2980
tp2981
a(S'eccentric'
tp2982
a(S'nearly'
p2983
S'every'
p2984
tp2985
a(S'persona'
tp2986
a(S'wallet'
p2987
tp2988
a(g2519
g20
tp2989
a(S'not'
p2990
S'exactly'
p2991
tp2992
a(S'gag'
p2993
tp2994
a(S'self-indulgent'
p2995
tp2996
a(S'superbly'
p2997
tp2998
a(g1607
g2258
tp2999
a(S'unimaginative'
p3000
tp3001
a(S'who'
p3002
S'wrote'
p3003
tp3004
a(S'viewing'
tp3005
a(S'remake'
p3006
tp3007
a(S'pompous'
p3008
tp3009
a(S'good'
p3010
tp3011
a(S'change'
p3012
tp3013
a(S'even'
S'though'
tp3014
a(S'tough'
tp3015
a(S'pick'
p3016
tp3017
a(S'creating'
tp3018
a(S'veers'
p3019
tp3020
a(S'running'
p3021
tp3022
a(S'computer'
tp3023
a(S'least'
tp3024
a(g171
S'off'
p3025
tp3026
a(S'inane'
tp3027
a(S'sense'
p3028
tp3029
a(S'giant'
p3030
tp3031
a(S'successful'
tp3032
a(S'stick'
p3033
tp3034
a(S'presented'
p3035
tp3036
a(S'hard'
p3037
tp3038
a(S'working'
tp3039
a(S'another'
p3040
S'day'
p3041
tp3042
a(S'movie'
p3043
S"that's"
p3044
tp3045
a(S'art'
p3046
S'direction'
p3047
tp3048
a(S'manners'
tp3049
a(S'can'
p3050
S'get'
p3051
tp3052
a(S'fuzzy'
p3053
tp3054
a(S'cold'
p3055
tp3056
a(S'anyone'
p3057
S'who'
p3058
tp3059
a(S'questionable'
p3060
tp3061
a(S'impeccable'
p3062
tp3063
a(S'wildly'
p3064
tp3065
a(S'unexpected'
p3066
tp3067
a(S'things'
tp3068
a(S'stage'
p3069
tp3070
a(S'reliable'
tp3071
a(S'achingly'
p3072
tp3073
a(S'delivery'
tp3074
a(S'excuse'
tp3075
a(S'holes'
p3076
tp3077
a(g1602
g153
g154
tp3078
a(S'anything'
p3079
S'remotely'
p3080
tp3081
a(S'gantz'
p3082
tp3083
a(S'sam'
p3084
tp3085
a(S'next'
tp3086
a(S"you've"
p3087
tp3088
a(g2271
g2272
tp3089
a(S'television'
tp3090
a(S'order'
tp3091
a(S'familiarity'
tp3092
a(g718
S'than'
p3093
tp3094
a(S'theater'
p3095
tp3096
a(S'pedigree'
p3097
tp3098
a(S'obligatory'
p3099
tp3100
a(S'lousy'
p3101
tp3102
a(S'wrong'
p3103
tp3104
a(S'affecting'
tp3105
a(S'emphasizes'
p3106
tp3107
a(S'squarely'
p3108
tp3109
a(S'sharp'
p3110
tp3111
a(S'quite'
p3112
tp3113
a(S'hole'
tp3114
a(S'whodunit'
p3115
tp3116
a(S'acted'
p3117
tp3118
a(S'night'
p3119
tp3120
a(S'atmosphere'
tp3121
a(S'event'
p3122
tp3123
a(S'sake'
tp3124
a(S'involved'
p3125
tp3126
a(S'specifically'
p3127
tp3128
a(S'belt'
tp3129
a(S'around'
p3130
tp3131
a(S'family'
p3132
tp3133
a(S'heat'
tp3134
a(S'small'
p3135
tp3136
a(S'audacity'
tp3137
a(S'indictment'
p3138
tp3139
a(S'close'
p3140
tp3141
a(S'anybody'
p3142
tp3143
a(g2684
tp3144
a(S'chan'
p3145
tp3146
a(S'few'
p3147
tp3148
a(S'accomplished'
tp3149
a(S'tony'
p3150
tp3151
a(S"reggio's"
p3152
tp3153
a(S'dire'
p3154
tp3155
a(S'highly'
p3156
tp3157
a(S'ship'
p3158
tp3159
a(S'revealing'
p3160
tp3161
a(S'amateurish'
p3162
tp3163
a(S'routine'
tp3164
a(S'grow'
p3165
tp3166
a(S'more'
S'like'
tp3167
a(S'executed'
tp3168
a(S'folk'
p3169
tp3170
a(S'cool'
p3171
tp3172
a(S'industry'
tp3173
a(g1871
tp3174
a(S'breaking'
p3175
tp3176
a(S'somber'
tp3177
a(S'presence'
tp3178
a(S'dramatic'
p3179
tp3180
a(S'breathes'
p3181
tp3182
a(S'notorious'
tp3183
a(S'gloss'
p3184
tp3185
a(S'way'
S'through'
tp3186
a(S'shadows'
p3187
tp3188
a(S'convey'
p3189
tp3190
a(S'startling'
p3191
tp3192
a(S'essentially'
p3193
tp3194
a(S'staged'
p3195
tp3196
a(g2088
tp3197
a(S'make'
p3198
S'you'
p3199
S'feel'
p3200
tp3201
a(S'telling'
p3202
tp3203
a(S'impossible'
p3204
tp3205
a(S'unhurried'
tp3206
a(S'its'
p3207
S'way'
p3208
tp3209
a(S'credible'
p3210
tp3211
a(S'obnoxious'
p3212
tp3213
a(S'has'
p3214
S'long'
p3215
tp3216
a(S'lame'
p3217
tp3218
a(S'satirical'
p3219
tp3220
a(S'clever'
tp3221
a(S'always'
p3222
tp3223
a(S'managed'
p3224
tp3225
a(S'barely'
tp3226
a(S'patience'
p3227
tp3228
a(S'when'
p3229
tp3230
a(S"i'm"
p3231
g1645
g1646
tp3232
a(S"hasn't"
p3233
tp3234
a(S'ensemble'
p3235
tp3236
a(g2366
tp3237
a(S'timely'
p3238
tp3239
a(S'acts'
p3240
tp3241
a(S'wife'
p3242
tp3243
a(S'results'
p3244
tp3245
a(S'regardless'
tp3246
a(S'paid'
p3247
tp3248
a(S'world'
p3249
tp3250
a(S'games'
p3251
tp3252
a(S'marching'
tp3253
a(S"aren't"
p3254
tp3255
a(S"you're"
tp3256
a(S'notice'
p3257
tp3258
a(S'roots'
tp3259
a(S'kid'
p3260
tp3261
a(S'notes'
p3262
tp3263
a(S'enormously'
p3264
tp3265
a(S'achieves'
p3266
tp3267
a(S'beauty'
p3268
tp3269
a(S'little'
p3270
g2662
tp3271
a(S"isn't"
p3272
S'much'
p3273
tp3274
a(S'appropriate'
p3275
tp3276
a(S'whole'
p3277
S'thing'
p3278
tp3279
a(S'protagonist'
tp3280
a(S'value'
p3281
tp3282
a(S'crime'
p3283
tp3284
a(S'comfortable'
p3285
tp3286
a(S'ghost'
p3287
tp3288
a(g2406
g2310
tp3289
a(S'jarring'
tp3290
a(S'gross'
p3291
tp3292
a(S'skill'
p3293
tp3294
a(S'finds'
p3295
tp3296
a(S'swings'
tp3297
a(S'ever'
p3298
S'made'
p3299
tp3300
a(S'separate'
p3301
tp3302
a(S"it's"
S'hard'
tp3303
a(S'perils'
tp3304
a(S'performances'
p3305
S'from'
p3306
tp3307
a(S'could'
S'have'
S'been'
tp3308
a(S'intriguing'
S'look'
tp3309
a(S'haunting'
p3310
tp3311
a(S'engrossing'
p3312
tp3313
a(S'rest'
tp3314
a(S'disturbing'
tp3315
a(S'sophistication'
tp3316
a(S'enjoy'
tp3317
a(g3199
g3200
tp3318
a(S'promising'
p3319
tp3320
a(S'serving'
p3321
S'sara'
p3322
tp3323
a(S"doesn't"
p3324
S'quite'
p3325
tp3326
a(S'seemed'
p3327
tp3328
a(S'corpse'
p3329
tp3330
a(S'you'
p3331
S'like'
p3332
tp3333
a(S'society'
p3334
tp3335
a(S'just'
p3336
S'how'
p3337
tp3338
a(S'camouflage'
p3339
tp3340
a(S'spare'
tp3341
a(S'godard'
p3342
tp3343
a(S'appeal'
tp3344
a(S'very'
p3345
S'well'
p3346
tp3347
a(S'liotta'
p3348
tp3349
a(S'inventive'
tp3350
a(S'mess'
p3351
tp3352
a(S'south'
tp3353
a(S'perfect'
p3354
tp3355
a(S'battle'
tp3356
a(S'girl'
p3357
tp3358
a(S'just'
p3359
g914
tp3360
a(S'laughed'
p3361
tp3362
a(S'film'
p3363
tp3364
a(S'led'
tp3365
a(S'could'
p3366
S'have'
p3367
tp3368
a(S'flirts'
tp3369
a(g429
tp3370
a(S'fails'
p3371
tp3372
a(S'likely'
p3373
tp3374
a(S'unfocused'
tp3375
a(S'situation'
p3376
tp3377
a(S'power'
p3378
tp3379
a(S'piano'
p3380
tp3381
a(S'fly'
p3382
tp3383
a(S'exterior'
p3384
tp3385
a(S'pictures'
p3386
tp3387
a(S'you'
p3388
g1537
tp3389
a(g1182
S'pleasure'
tp3390
a(S'minor'
p3391
tp3392
a(S'family'
p3393
S'film'
p3394
tp3395
a(S'give'
p3396
tp3397
a(S'lit'
p3398
tp3399
a(S'gimmicky'
p3400
tp3401
a(S'matter'
tp3402
a(S'attempts'
p3403
tp3404
a(S'ingredients'
p3405
tp3406
a(S'various'
p3407
tp3408
a(S'film'
S'seems'
tp3409
a(S'taken'
p3410
tp3411
a(S'n\xe3o'
p3412
tp3413
a(S'visually'
tp3414
a(S'screaming'
p3415
tp3416
a(S'journey'
p3417
tp3418
a(S'polished'
p3419
tp3420
a(S'chase'
p3421
tp3422
a(S"zhang's"
p3423
tp3424
a(S'flounders'
p3425
tp3426
a(S'action'
p3427
tp3428
a(S'should'
p3429
S'have'
p3430
S'been'
p3431
tp3432
a(S'awkward'
p3433
tp3434
a(S'foibles'
tp3435
a(S'stale'
p3436
tp3437
a(S'jackie'
p3438
S'chan'
p3439
tp3440
a(S'tedious'
p3441
tp3442
a(S'somewhere'
p3443
S'between'
p3444
tp3445
a(S'spectacle'
p3446
tp3447
a(S'imagery'
p3448
tp3449
a(g3003
tp3450
a(S'indeed'
tp3451
a(S'happy'
tp3452
a(S'enjoyable'
p3453
tp3454
a(S'drama'
p3455
tp3456
a(S'die'
p3457
tp3458
a(S'overall'
p3459
tp3460
a(S'dragons'
tp3461
a(S'movies'
p3462
S'about'
p3463
tp3464
a(S'teen'
p3465
tp3466
a(S'limited'
p3467
tp3468
a(S'caught'
p3469
tp3470
a(S'play'
tp3471
a(S'elizabeth'
p3472
tp3473
a(S'return'
p3474
tp3475
a(S'wait'
p3476
tp3477
a(S'horrors'
p3478
tp3479
a(S'fat'
p3480
tp3481
a(S'released'
tp3482
a(S'just'
p3483
S'another'
p3484
tp3485
a(S'classic'
p3486
tp3487
a(S'mean'
p3488
tp3489
a(S'harris'
tp3490
a(S'relentlessly'
p3491
tp3492
a(S'cynicism'
p3493
tp3494
a(S'nearly'
tp3495
a(g341
tp3496
a(S'funny'
p3497
tp3498
a(S'innocence'
p3499
tp3500
a(S'rodriguez'
p3501
tp3502
a(S'escapism'
p3503
tp3504
a(S'flair'
p3505
tp3506
a(g2351
tp3507
a(S'breath'
tp3508
a(S'strains'
p3509
tp3510
a(S'prove'
tp3511
a(S'all'
p3512
S'around'
p3513
tp3514
a(S'elusive'
tp3515
a(S'convince'
p3516
tp3517
a(S'whatever'
p3518
tp3519
a(S'allen'
p3520
tp3521
a(S'watchable'
p3522
tp3523
a(g3429
g3430
tp3524
a(S'still'
p3525
tp3526
a(S'above'
p3527
tp3528
a(S'harry'
p3529
tp3530
a(S'says'
p3531
tp3532
a(S'make'
p3533
tp3534
a(S'mainstream'
p3535
tp3536
a(S'bill'
p3537
tp3538
a(S'calculated'
tp3539
a(S'mayhem'
tp3540
a(S'unwieldy'
p3541
tp3542
a(S'ice'
p3543
tp3544
a(S'experiences'
p3545
tp3546
a(S'run-of-the-mill'
p3547
tp3548
a(S'incredibly'
p3549
tp3550
a(S'lifeless'
tp3551
a(S'boy'
p3552
tp3553
a(S'wind'
tp3554
a(S'toss'
p3555
tp3556
a(S'outer'
p3557
tp3558
a(S'movement'
tp3559
a(S'script'
p3560
tp3561
a(S'degree'
p3562
tp3563
a(S'interesting'
tp3564
a(S'southern'
p3565
tp3566
a(S'artist'
tp3567
a(S'comedy'
p3568
S'about'
p3569
tp3570
a(S'simultaneously'
p3571
tp3572
a(S'seemingly'
p3573
tp3574
a(S'convoluted'
p3575
tp3576
a(S'ask'
p3577
tp3578
a(S'hold'
p3579
tp3580
a(S'many'
p3581
S'times'
p3582
tp3583
a(S'tends'
tp3584
a(g3047
tp3585
a(S'parker'
p3586
tp3587
a(S'positive'
p3588
tp3589
a(S'much'
p3590
S'like'
p3591
tp3592
a(S'filmmaking'
tp3593
a(S'spectacular'
p3594
tp3595
a(S'adage'
tp3596
a(S'conventional'
p3597
tp3598
a(S'single'
p3599
tp3600
a(S"characters'"
p3601
tp3602
a(S'same'
S'time'
tp3603
a(S'relationship'
p3604
tp3605
a(S'hollywood'
p3606
tp3607
a(S'her'
p3608
S'husband'
p3609
tp3610
a(g2710
S'like'
p3611
tp3612
a(S'about'
p3613
tp3614
a(S'comes'
p3615
g1756
tp3616
a(S'once'
tp3617
a(S'sincere'
p3618
tp3619
a(S'buddy'
p3620
tp3621
a(g1552
S'crush'
p3622
tp3623
a(S'cheap'
p3624
tp3625
a(S'sweeping'
p3626
tp3627
a(S'competition'
p3628
tp3629
a(S'glossy'
p3630
tp3631
a(S'annoying'
p3632
tp3633
a(S'edited'
p3634
tp3635
a(S'other'
p3636
S'than'
p3637
tp3638
a(S'yet'
tp3639
a(S'brainless'
p3640
tp3641
a(S'interpretation'
p3642
tp3643
a(S'violence'
tp3644
a(S'fair'
p3645
tp3646
a(S'all'
tp3647
a(S'life-affirming'
p3648
tp3649
a(S'working'
p3650
S'from'
p3651
tp3652
a(S'not'
p3653
g1312
tp3654
a(S'represents'
p3655
tp3656
a(S'makes'
p3657
tp3658
a(S'consuming'
p3659
tp3660
a(S'read'
p3661
tp3662
a(S'good'
S'film'
tp3663
a(S'instantly'
p3664
tp3665
a(S'silliness'
p3666
tp3667
a(S'thought'
p3668
tp3669
a(S'anyone'
S'else'
tp3670
a(S'serve'
p3671
tp3672
a(S'exactly'
p3673
tp3674
a(S'soon'
p3675
tp3676
a(S'mindless'
tp3677
a(S'evil'
p3678
tp3679
a(S'once'
p3680
S'again'
p3681
tp3682
a(S'sex'
p3683
tp3684
a(S'message'
p3685
tp3686
a(S'buried'
p3687
tp3688
a(S'predecessor'
p3689
tp3690
a(S'taut'
p3691
tp3692
a(S'seeing'
p3693
tp3694
a(S'under'
p3695
tp3696
a(S'fear'
p3697
tp3698
a(S'from'
p3699
S'start'
p3700
tp3701
a(S'god'
tp3702
a(S'demanding'
tp3703
a(S'what'
S'time'
tp3704
a(S'makes'
p3705
S'you'
p3706
tp3707
a(S'loses'
p3708
S'its'
p3709
tp3710
a(S'can'
p3711
S'make'
p3712
tp3713
a(S'during'
p3714
tp3715
a(S'about'
p3716
S'what'
p3717
tp3718
a(S'orange'
p3719
tp3720
a(S'well'
p3721
S'made'
p3722
tp3723
a(S'flicks'
p3724
tp3725
a(S'elling'
tp3726
a(S'absorbing'
p3727
tp3728
a(S'sardonic'
p3729
tp3730
a(S'smith'
tp3731
a(S'today'
p3732
tp3733
a(S'lavishly'
p3734
tp3735
a(S'acting'
p3736
tp3737
a(S'chris'
p3738
tp3739
a(S'home'
p3740
tp3741
a(S'damn'
p3742
tp3743
a(g2002
tp3744
a(S'genuinely'
p3745
tp3746
a(S'mildly'
p3747
tp3748
a(S'conveying'
p3749
tp3750
a(S'panache'
p3751
tp3752
a(S'positively'
p3753
tp3754
a(S'light'
p3755
tp3756
a(S'kung'
p3757
g2833
tp3758
a(S'complete'
p3759
tp3760
a(S'delight'
tp3761
a(S'shock'
tp3762
a(S'culture'
p3763
tp3764
a(S'your'
p3765
g716
tp3766
a(S'appear'
p3767
tp3768
a(S'keeping'
tp3769
a(g1914
tp3770
a(S'saw'
tp3771
a(S'pretentious'
tp3772
a(g926
S'any'
p3773
tp3774
a(S'ending'
p3775
tp3776
a(S'generally'
p3777
tp3778
a(g342
tp3779
a(S'skin'
p3780
tp3781
a(S'incompetent'
p3782
tp3783
a(S'seem'
p3784
S'like'
p3785
tp3786
a(S'planet'
p3787
tp3788
a(S'literally'
p3789
tp3790
a(S'deliver'
tp3791
a(S'performers'
p3792
tp3793
a(S'families'
p3794
tp3795
a(g854
g855
tp3796
a(S'natural'
tp3797
a(S'until'
p3798
tp3799
a(S'chew'
tp3800
a(S'intense'
tp3801
a(S'laughter'
p3802
tp3803
a(S'already'
p3804
tp3805
a(S'inspire'
tp3806
a(S'insights'
p3807
tp3808
a(S'odds'
tp3809
a(S'provocative'
p3810
tp3811
a(S'steve'
p3812
tp3813
a(S'gay'
p3814
tp3815
a(S'carries'
tp3816
a(S'contains'
p3817
tp3818
a(S'two'
p3819
tp3820
a(S'touching'
tp3821
a(S'unusually'
p3822
tp3823
a(g2029
g2030
S'have'
tp3824
a(S'its'
p3825
S'lead'
p3826
tp3827
a(S'begins'
p3828
tp3829
a(S'mildly'
p3830
S'amusing'
p3831
tp3832
a(S'zippy'
p3833
tp3834
a(S'moviegoers'
tp3835
a(S'increasingly'
p3836
tp3837
a(S'friend'
p3838
tp3839
a(S'film'
S'makes'
tp3840
a(S'rise'
tp3841
a(S'exploit'
tp3842
a(S'little'
S'else'
tp3843
a(S'only'
p3844
tp3845
a(S'works'
p3846
S'because'
p3847
tp3848
a(S'stars'
p3849
tp3850
a(S'filmmaker'
p3851
tp3852
a(S'awe'
p3853
tp3854
a(S'independent'
p3855
tp3856
a(S'picture'
tp3857
a(S'cage'
p3858
tp3859
a(S'social'
p3860
tp3861
a(S'sketch'
p3862
tp3863
a(S'happening'
p3864
tp3865
a(S'love'
tp3866
a(S'fill'
p3867
tp3868
a(S'writer-director'
p3869
tp3870
a(S'good'
S'movie'
tp3871
a(S'angel'
p3872
tp3873
a(S'rings'
p3874
tp3875
a(S'tries'
p3876
tp3877
a(S'production'
p3878
S'design'
p3879
tp3880
a(S'cheesy'
p3881
tp3882
a(S'party'
tp3883
a(S'fan'
p3884
tp3885
a(S'crew'
p3886
tp3887
a(S'members'
tp3888
a(S'fire'
tp3889
a(S'more'
p3890
tp3891
a(S'name'
p3892
tp3893
a(S'stand'
p3894
S'out'
p3895
tp3896
a(S'also'
p3897
tp3898
a(S'splendidly'
p3899
tp3900
a(S'french'
p3901
tp3902
a(S'reassuring'
p3903
tp3904
a(S'paul'
p3905
tp3906
a(S'shots'
p3907
tp3908
a(S'movie'
p3909
S'about'
p3910
tp3911
a(S'can'
p3912
S'only'
p3913
tp3914
a(S'anemic'
p3915
tp3916
a(S'noyce'
p3917
tp3918
a(S'ride'
tp3919
a(S'disappointing'
p3920
tp3921
a(S'business'
p3922
tp3923
a(S'bad'
S'movie'
tp3924
a(S'earn'
p3925
tp3926
a(S'camp'
p3927
tp3928
a(S'long'
S'time'
tp3929
a(S'builds'
p3930
tp3931
a(S"would've"
p3932
tp3933
a(S'mark'
p3934
tp3935
a(S'toward'
p3936
tp3937
a(S'again'
p3938
tp3939
a(S'admirable'
p3940
tp3941
a(S'others'
p3942
tp3943
a(S'spend'
tp3944
a(S'diesel'
p3945
tp3946
a(S'death'
p3947
tp3948
a(S'brain'
p3949
tp3950
a(S'academy'
p3951
tp3952
a(S'drink'
tp3953
a(S'unintentional'
p3954
tp3955
a(g2419
tp3956
a(S'put'
tp3957
a(S'sour'
tp3958
a(S'madonna'
p3959
tp3960
a(S'from'
p3961
S'frame'
p3962
tp3963
a(S'flat'
p3964
tp3965
a(S'subtlety'
p3966
tp3967
a(S'rock'
tp3968
a(S'breakthrough'
tp3969
a(S'addition'
tp3970
a(S'boasting'
p3971
tp3972
a(S'many'
p3973
tp3974
a(g3431
tp3975
a(S'aimlessly'
p3976
tp3977
a(S'destroy'
p3978
tp3979
a(S'gentle'
p3980
tp3981
a(S'demographic'
p3982
tp3983
a(S'missing'
p3984
tp3985
a(S'release'
p3986
tp3987
a(S'food'
tp3988
a(S'emotions'
p3989
tp3990
a(g3021
S'time'
p3991
tp3992
a(S'efforts'
p3993
tp3994
a(S'insulting'
p3995
tp3996
a(S'artists'
p3997
tp3998
a(S'gritty'
p3999
tp4000
a(S'fact'
tp4001
a(S'cinematography'
tp4002
a(S'shows'
p4003
tp4004
a(S'longer'
p4005
tp4006
a(S'lack'
p4007
tp4008
a(S'admit'
p4009
tp4010
a(S'idea'
p4011
tp4012
a(S"doesn't"
p4013
S'work'
p4014
tp4015
a(S'sexy'
p4016
tp4017
a(S'stories'
p4018
tp4019
a(S'ghetto'
tp4020
a(S'treatment'
p4021
tp4022
a(S'pair'
p4023
tp4024
a(S'overwhelming'
p4025
tp4026
a(S'very'
S'little'
tp4027
a(S'beguiling'
p4028
tp4029
a(S'conduct'
p4030
tp4031
a(S'head'
p4032
tp4033
a(g621
g1134
g1135
tp4034
a(S'abilities'
tp4035
a(S'lot'
p4036
g874
tp4037
a(S'endless'
p4038
tp4039
a(S'regret'
p4040
tp4041
a(S'our'
p4042
tp4043
a(S'superficial'
p4044
tp4045
a(S'striking'
p4046
tp4047
a(S"doesn't"
p4048
S'have'
p4049
tp4050
a(S'music'
p4051
tp4052
a(S'walked'
p4053
tp4054
a(S'black'
S'comedy'
tp4055
a(S'creative'
p4056
tp4057
a(S'criminal'
p4058
tp4059
a(S'credits'
tp4060
a(S'fascinating'
p4061
tp4062
a(S'pulp'
tp4063
a(S'pungent'
p4064
tp4065
a(S'smart'
tp4066
a(g3609
tp4067
a(S'abstract'
p4068
tp4069
a(S'crush'
p4070
tp4071
a(S'inept'
tp4072
a(S'pacino'
p4073
tp4074
a(S'from'
p4075
S'his'
p4076
tp4077
a(S'flimsy'
p4078
tp4079
a(S'musicians'
tp4080
a(S'doors'
tp4081
a(S'choice'
p4082
tp4083
a(S'easy'
tp4084
a(S'lacks'
p4085
tp4086
a(S'dysfunctional'
p4087
tp4088
a(S'time'
p4089
tp4090
a(S'layer'
p4091
tp4092
a(S'plodding'
p4093
tp4094
a(g855
g856
tp4095
a(S'incoherent'
tp4096
a(S'together'
p4097
tp4098
a(g2348
tp4099
a(S'angry'
p4100
tp4101
a(g2420
tp4102
a(S'larger'
p4103
tp4104
a(S'performances'
p4105
S'from'
p4106
S'his'
p4107
tp4108
a(S'breathtaking'
p4109
tp4110
a(S'onscreen'
p4111
tp4112
a(S'richer'
p4113
tp4114
a(S'warning'
p4115
tp4116
a(S'new'
p4117
tp4118
a(S'who'
p4119
S'has'
p4120
tp4121
a(S'might'
p4122
S'have'
p4123
S'been'
p4124
tp4125
a(S'time'
S'machine'
tp4126
a(S'how'
p4127
tp4128
a(S'fallen'
p4129
tp4130
a(S'grows'
p4131
tp4132
a(S'become'
p4133
S'one'
p4134
tp4135
a(S'clause'
p4136
tp4137
a(S'end'
p4138
tp4139
a(S'personality'
p4140
tp4141
a(S'2002'
tp4142
a(S'everything'
p4143
tp4144
a(S'contemporary'
p4145
tp4146
a(S'doubt'
tp4147
a(S'variation'
p4148
tp4149
a(S'frenetic'
p4150
tp4151
a(S'90-minute'
tp4152
a(S'maudlin'
tp4153
a(S'dull'
tp4154
a(S'fashion'
tp4155
a(S'man'
tp4156
a(S'jump'
p4157
tp4158
a(S'cinderella'
p4159
tp4160
a(S"it's"
S'also'
tp4161
a(S'screenwriting'
p4162
tp4163
a(S'sentimentality'
p4164
tp4165
a(S'funniest'
p4166
tp4167
a(S'entertained'
tp4168
a(S'serious'
p4169
tp4170
a(S'audiences'
tp4171
a(S'ensemble'
p4172
S'cast'
p4173
tp4174
a(S'elegant'
p4175
tp4176
a(g3231
g1645
tp4177
a(S'rhetoric'
tp4178
a(S'channel'
p4179
tp4180
a(S'rhythms'
tp4181
a(S'puts'
tp4182
a(S'puzzling'
p4183
tp4184
a(S"he'd"
p4185
tp4186
a(S'men'
tp4187
a(S"doesn't"
p4188
S'always'
p4189
tp4190
a(S'understands'
tp4191
a(S'ages'
tp4192
a(S'outside'
p4193
tp4194
a(S'took'
tp4195
a(S'fits'
p4196
tp4197
a(S'stuff'
p4198
tp4199
a(S'throwing'
tp4200
a(S'hand'
p4201
tp4202
a(S'other'
p4203
S'films'
p4204
tp4205
a(S'evoke'
tp4206
a(S'heart'
p4207
tp4208
a(S'learn'
p4209
tp4210
a(S'never'
p4211
S'really'
p4212
tp4213
a(S'sayles'
p4214
tp4215
a(S'present'
tp4216
a(S'shocks'
p4217
tp4218
a(S'festival'
p4219
tp4220
a(S'ground'
p4221
tp4222
a(S'tales'
p4223
tp4224
a(S'remarkable'
p4225
tp4226
a(S'just'
p4227
g1846
g1847
tp4228
a(S'murphy'
p4229
tp4230
a(S'its'
p4231
g2585
tp4232
a(S'bad'
S'film'
tp4233
a(S'piffle'
p4234
tp4235
a(S'absurdist'
p4236
tp4237
a(S'manner'
tp4238
a(S'marks'
p4239
tp4240
a(S"isn't"
p4241
S'nearly'
p4242
tp4243
a(S'where'
p4244
tp4245
a(S'fable'
p4246
tp4247
a(S'road'
tp4248
a(S'sadly'
tp4249
a(S'creature'
p4250
tp4251
a(S'liking'
p4252
tp4253
a(S'execution'
p4254
tp4255
a(S'its'
p4256
S'subject'
p4257
tp4258
a(S'relevant'
tp4259
a(S'sensual'
p4260
tp4261
a(S'surprises'
tp4262
a(S'nothing'
S'about'
tp4263
a(S'michael'
p4264
tp4265
a(S'less'
p4266
tp4267
a(g320
tp4268
a(g1602
g153
tp4269
a(S'yarn'
p4270
tp4271
a(S'spot'
p4272
tp4273
a(S'sloppy'
p4274
tp4275
a(S'dance'
p4276
tp4277
a(S'right'
S'place'
tp4278
a(S'necessary'
p4279
tp4280
a(S'spell'
p4281
tp4282
a(S'shout'
tp4283
a(S'perfectly'
p4284
tp4285
a(S'deep'
tp4286
a(S'pretty'
p4287
tp4288
a(S'renner'
p4289
tp4290
a(S'plot'
g3076
tp4291
a(S'showing'
p4292
tp4293
a(S'nervy'
p4294
tp4295
a(S'perhaps'
tp4296
a(g1679
tp4297
a(S'farcical'
p4298
tp4299
a(S'fewer'
p4300
tp4301
a(S'belief'
p4302
tp4303
a(S'outrageous'
p4304
tp4305
a(S'bare'
p4306
tp4307
a(S'books'
p4308
tp4309
a(S'children'
p4310
tp4311
a(g3961
g3962
S'one'
p4312
tp4313
a(S'sell'
tp4314
a(S'repeated'
tp4315
a(S'aimed'
p4316
tp4317
a(S'little'
p4318
S'more'
p4319
tp4320
a(S'interesting'
S'characters'
tp4321
a(S'thriller'
p4322
tp4323
a(S'gives'
p4324
tp4325
a(S'well'
p4326
S'enough'
p4327
tp4328
a(S'your'
g4032
tp4329
a(S'stunning'
p4330
tp4331
a(S"it's"
p4332
g2347
tp4333
a(S'going'
p4334
tp4335
a(S'teenagers'
p4336
tp4337
a(S"greene's"
p4338
tp4339
a(S'remarkably'
p4340
tp4341
a(S'dots'
tp4342
a(S'nothing'
p4343
S'less'
p4344
tp4345
a(S'heroes'
p4346
tp4347
a(S'recommend'
p4348
tp4349
a(S'unable'
tp4350
a(g1882
tp4351
a(g8
S'done'
p4352
tp4353
a(S'thoroughly'
p4354
tp4355
a(S'casting'
tp4356
a(S'meandering'
tp4357
a(S'reminds'
p4358
tp4359
a(S'violent'
p4360
tp4361
a(S'wrapped'
p4362
tp4363
a(S'fight'
p4364
tp4365
a(g1134
tp4366
a(S'adults'
tp4367
a(S'another'
p4368
tp4369
a(S'thousands'
tp4370
a(S'imagine'
p4371
tp4372
a(S'does'
p4373
S'give'
p4374
tp4375
a(S'original'
p4376
tp4377
a(S'able'
p4378
tp4379
a(S'credit'
p4380
tp4381
a(S'moviemaking'
p4382
tp4383
a(S'private'
tp4384
a(S'understanding'
p4385
tp4386
a(S'bond'
p4387
tp4388
a(S'greatest'
p4389
tp4390
a(S'balance'
p4391
tp4392
a(S'slasher'
p4393
tp4394
a(S'revelatory'
tp4395
a(S'casual'
p4396
tp4397
a(S'miss'
p4398
tp4399
a(S'finish'
tp4400
a(S'encounter'
p4401
tp4402
a(S'discussion'
tp4403
a(S'human'
g606
tp4404
a(S'father'
p4405
tp4406
a(S'intimate'
p4407
tp4408
a(S'coherent'
p4409
tp4410
a(S'hear'
tp4411
a(S'inviting'
tp4412
a(S"it's"
S'not'
S'just'
tp4413
a(S'fake'
p4414
tp4415
a(S'genres'
tp4416
a(S'easier'
p4417
tp4418
a(g568
g569
g1912
tp4419
a(S'made'
tp4420
a(S'its'
S'own'
p4421
S'way'
p4422
tp4423
a(S'clueless'
p4424
tp4425
a(S'discovery'
p4426
tp4427
a(S'tom'
p4428
tp4429
a(S'stuck'
p4430
tp4431
a(S'upon'
p4432
tp4433
a(S'john'
p4434
tp4435
a(S'sober'
tp4436
a(S'randall'
p4437
tp4438
a(S'values'
p4439
tp4440
a(S'pathology'
tp4441
a(S'helps'
tp4442
a(S'its'
p4443
S'title'
p4444
tp4445
a(S'misfire'
p4446
tp4447
a(S'hilarious'
p4448
tp4449
a(S'heroine'
p4450
tp4451
a(S'onto'
p4452
tp4453
a(S'decent'
p4454
tp4455
a(S'moody'
tp4456
a(S'who'
p4457
S"aren't"
p4458
tp4459
a(S'ridiculous'
p4460
tp4461
a(S'wannabe'
p4462
tp4463
a(S"won't"
p4464
tp4465
a(S'delicate'
p4466
tp4467
a(S'has'
S'done'
tp4468
a(S'desperate'
p4469
tp4470
a(S'enormous'
p4471
tp4472
a(S'tunney'
p4473
tp4474
a(g569
g1912
g1026
g1027
tp4475
a(S'looking'
p4476
tp4477
a(g2218
S'about'
tp4478
a(S'best'
p4479
g3838
tp4480
a(S'wacky'
p4481
tp4482
a(S'thought-provoking'
p4483
tp4484
a(S'time'
S'out'
tp4485
a(S'his'
S'characters'
tp4486
a(S'herself'
p4487
tp4488
a(S'solemn'
p4489
tp4490
a(S'medium'
p4491
tp4492
a(S'steals'
tp4493
a(S'drug'
p4494
tp4495
a(S'concern'
p4496
tp4497
a(S'top'
p4498
tp4499
a(S"woman's"
p4500
tp4501
a(g2131
S'wild'
tp4502
a(S'poignant'
tp4503
a(S'budget'
p4504
tp4505
a(S'like'
p4506
S'being'
p4507
tp4508
a(S'amused'
p4509
tp4510
a(S'entirely'
p4511
tp4512
a(S'asian'
p4513
tp4514
a(S'bears'
p4515
tp4516
a(S'waste'
tp4517
a(S'enduring'
p4518
tp4519
a(S'stealing'
p4520
tp4521
a(S'use'
p4522
tp4523
a(S'any'
p4524
S'more'
p4525
tp4526
a(S'affection'
tp4527
a(S'masterful'
p4528
tp4529
a(S'unfortunately'
tp4530
a(S'west'
tp4531
a(S'thick'
p4532
tp4533
a(S'far'
p4534
S'less'
p4535
tp4536
a(S'largely'
p4537
tp4538
a(S'wonderful'
p4539
tp4540
a(S'virtually'
p4541
tp4542
a(S'exciting'
tp4543
a(S'kick'
p4544
tp4545
a(S'camera'
tp4546
a(S'assume'
tp4547
a(S'likable'
tp4548
a(S'monty'
p4549
tp4550
a(S'just'
p4551
S'not'
p4552
tp4553
a(S'morality'
p4554
tp4555
a(S'engaging'
p4556
tp4557
a(S'band'
tp4558
a(S'sequence'
p4559
tp4560
a(S'unforced'
p4561
tp4562
a(S'aside'
p4563
tp4564
a(S'harvard'
p4565
tp4566
a(g1149
S'never'
p4567
tp4568
a(S'pleasure'
p4569
tp4570
a(S'questions'
p4571
tp4572
a(S'bitter'
p4573
tp4574
a(S'throws'
p4575
tp4576
a(g2255
tp4577
a(S'pack'
tp4578
a(S'freedom'
p4579
tp4580
a(S'styles'
tp4581
a(S'maintains'
p4582
tp4583
a(S'hour'
tp4584
a(S'without'
p4585
S'being'
p4586
tp4587
a(S'nothing'
p4588
tp4589
a(S'examination'
p4590
tp4591
a(S'stay'
tp4592
a(S'voice'
p4593
tp4594
a(S'which'
p4595
tp4596
a(S'national'
p4597
tp4598
a(S'were'
p4599
tp4600
a(S'fantastic'
p4601
tp4602
a(S'trip'
p4603
tp4604
a(S'full'
p4605
tp4606
a(S'one'
p4607
g2900
tp4608
a(S'stops'
tp4609
a(g307
tp4610
a(S'nightmare'
p4611
tp4612
a(S'you'
p4613
S'never'
p4614
tp4615
a(S'office'
p4616
tp4617
a(S'considerable'
p4618
tp4619
a(S'complicated'
p4620
tp4621
a(S'sound'
p4622
tp4623
a(S'epic'
p4624
tp4625
a(S'somehow'
p4626
S'manages'
p4627
tp4628
a(S'goofball'
p4629
tp4630
a(S'described'
tp4631
a(S'you'
p4632
g393
tp4633
a(S'cartoonish'
p4634
tp4635
a(S'maid'
tp4636
a(S'finally'
tp4637
a(S'family'
S'drama'
tp4638
a(S'ties'
p4639
tp4640
a(S'kiss'
tp4641
a(S'low'
tp4642
a(S"wilde's"
p4643
tp4644
a(S'oedekerk'
p4645
tp4646
a(S'similar'
p4647
tp4648
a(g2766
tp4649
a(S'biopic'
p4650
tp4651
a(S'clear'
p4652
tp4653
a(S'subtle'
tp4654
a(g100
tp4655
a(S'formulaic'
p4656
tp4657
a(S'moral'
tp4658
a(S'reality'
p4659
tp4660
a(S'directed'
tp4661
a(S'corny'
tp4662
a(S'favorite'
p4663
tp4664
a(S'video'
tp4665
a(S'michel'
p4666
tp4667
a(S'language'
p4668
tp4669
a(g1858
S'wedding'
p4670
tp4671
a(S'well-made'
p4672
tp4673
a(S'costumes'
tp4674
a(S'points'
p4675
tp4676
a(S'damage'
p4677
tp4678
a(g2599
g4127
tp4679
a(S'sustain'
p4680
tp4681
a(S'second'
p4682
S'half'
p4683
tp4684
a(S'peter'
p4685
tp4686
a(S'urge'
tp4687
a(S'lady'
p4688
tp4689
a(S'logic'
p4690
tp4691
a(S'deal'
tp4692
a(S'amounts'
p4693
tp4694
a(S'heartwarming'
tp4695
a(S'fresh'
tp4696
a(S'held'
p4697
tp4698
a(g2490
g3028
tp4699
a(S'individual'
p4700
tp4701
a(S'haunted'
p4702
tp4703
a(S'times'
p4704
tp4705
a(S'starring'
p4706
tp4707
a(S'film'
p4708
S'can'
p4709
tp4710
a(S'blend'
p4711
tp4712
a(S'someone'
p4713
tp4714
a(S'started'
tp4715
a(S'youngsters'
p4716
tp4717
a(S'trailer'
p4718
tp4719
a(S'skip'
tp4720
a(S'you'
p4721
S'get'
p4722
tp4723
a(S'like'
p4724
tp4725
a(S'would'
p4726
tp4727
a(S'period'
p4728
tp4729
a(S'tone'
tp4730
a(S'belongs'
p4731
tp4732
a(S'japanese'
p4733
tp4734
a(S'were'
S'soldiers'
p4735
tp4736
a(S'general'
tp4737
a(S'teen'
p4738
S'comedy'
p4739
tp4740
a(S'live-action'
p4741
tp4742
a(S'summer'
p4743
tp4744
a(S'has'
p4745
S'nothing'
p4746
tp4747
a(S'parts'
p4748
tp4749
a(S'him'
p4750
tp4751
a(S'angels'
p4752
tp4753
a(S'goodness'
p4754
tp4755
a(S'unsatisfying'
tp4756
a(S'features'
p4757
tp4758
a(S'high'
tp4759
a(S'winner'
tp4760
a(g3388
g1537
g236
tp4761
a(S'mask'
tp4762
a(S'played'
p4763
tp4764
a(S'serves'
tp4765
a(S'static'
tp4766
a(S'short'
p4767
S'story'
p4768
tp4769
a(S'dry'
tp4770
a(S'horrifying'
p4771
tp4772
a(S'crafted'
p4773
tp4774
a(S'trek'
p4775
tp4776
a(S'comedic'
p4777
tp4778
a(S'filled'
p4779
tp4780
a(S'gory'
p4781
tp4782
a(S'long'
S'way'
tp4783
a(g3057
tp4784
a(S'earlier'
p4785
tp4786
a(S'chilly'
p4787
tp4788
a(S'never'
p4789
S'quite'
p4790
tp4791
a(g992
S'have'
p4792
tp4793
a(S'last'
p4794
tp4795
a(S'fancy'
p4796
tp4797
a(S'black'
tp4798
a(S'standard'
p4799
tp4800
a(S'world'
p4801
S'war'
p4802
tp4803
a(S'uncompromising'
p4804
tp4805
a(S'provides'
tp4806
a(S'segment'
tp4807
a(S'martin'
p4808
tp4809
a(S'construct'
p4810
tp4811
a(S'latter'
tp4812
a(S'short'
tp4813
a(g2719
g2032
g2033
tp4814
a(S'humour'
p4815
tp4816
a(S'imagination'
p4817
tp4818
a(S'you'
S'could'
tp4819
a(S'brought'
p4820
tp4821
a(S"plot's"
tp4822
a(S'quick'
p4823
tp4824
a(S'why'
p4825
tp4826
a(S'lighting'
tp4827
a(g2394
g1036
tp4828
a(S'gets'
p4829
tp4830
a(S'faith'
tp4831
a(S'educational'
p4832
tp4833
a(g3380
g1862
tp4834
a(S'graphic'
p4835
tp4836
a(g2950
tp4837
a(S"what's"
p4838
tp4839
a(S'especially'
tp4840
a(S'facing'
p4841
tp4842
a(S'queen'
tp4843
a(S'sentiment'
p4844
tp4845
a(S"doesn't"
S'give'
tp4846
a(S'somehow'
tp4847
a(S'his'
p4848
S'most'
p4849
tp4850
a(S'deserves'
p4851
tp4852
a(S'silly'
p4853
tp4854
a(S'satisfy'
p4855
tp4856
a(S'trying'
p4857
tp4858
a(S'qualities'
tp4859
a(S'imaginative'
p4860
tp4861
a(S'leaves'
p4862
tp4863
a(S'eyes'
tp4864
a(S'nicely'
p4865
tp4866
a(S'chuckle'
p4867
tp4868
a(S'its'
S'story'
tp4869
a(S'touches'
p4870
tp4871
a(S'become'
p4872
tp4873
a(S'high'
p4874
S'crimes'
p4875
tp4876
a(S'sight'
p4877
tp4878
a(S'people'
p4879
S'who'
p4880
tp4881
a(S'let'
p4882
tp4883
a(S'hits'
tp4884
a(S'suit'
tp4885
a(S'stand'
tp4886
a(S'far'
p4887
g681
tp4888
a(S'wise'
p4889
tp4890
a(S'shallow'
p4891
tp4892
a(S'too'
p4893
S'often'
p4894
tp4895
a(S'deliberate'
p4896
tp4897
a(S'midnight'
p4898
tp4899
a(S'wreck'
p4900
tp4901
a(S'effect'
p4902
tp4903
a(S'awful'
p4904
tp4905
a(S'too'
p4906
S'seriously'
p4907
tp4908
a(S'has'
p4909
S'all'
p4910
tp4911
a(S'sentiments'
p4912
tp4913
a(S'parody'
tp4914
a(S'can'
p4915
tp4916
a(g3636
tp4917
a(S'when'
p4918
g4632
tp4919
a(S'enjoyed'
p4920
tp4921
a(S'structure'
p4922
tp4923
a(S'james'
p4924
tp4925
a(S'confusing'
tp4926
a(S'all'
g2099
tp4927
a(S'improbable'
p4928
tp4929
a(S'offensive'
tp4930
a(S'seeking'
p4931
tp4932
a(S"it's"
p4933
S'just'
p4934
tp4935
a(S'thrills'
p4936
tp4937
a(S'probably'
p4938
tp4939
a(S'wish'
p4940
tp4941
a(S'looks'
p4942
tp4943
a(S'only'
S'because'
tp4944
a(S'field'
tp4945
a(S'slightly'
p4946
tp4947
a(S'story'
p4948
tp4949
a(S'shaggy'
p4950
tp4951
a(S'may'
p4952
S'have'
p4953
tp4954
a(S'overwrought'
p4955
tp4956
a(S'equivalent'
tp4957
a(S'sly'
tp4958
a(S"chabrol's"
p4959
tp4960
a(g3305
tp4961
a(S'below'
p4962
tp4963
a(S'delightful'
p4964
tp4965
a(S'shines'
p4966
tp4967
a(S'cinematic'
p4968
tp4969
a(S'figures'
p4970
tp4971
a(S'revolution'
p4972
tp4973
a(S'childish'
tp4974
a(S'grating'
p4975
tp4976
a(S'lazy'
p4977
tp4978
a(S'steers'
p4979
tp4980
a(S'pleasantly'
p4981
tp4982
a(S'love'
p4983
S'story'
p4984
tp4985
a(S'kapur'
p4986
tp4987
a(S'professional'
p4988
tp4989
a(S'basically'
tp4990
a(S'ago'
p4991
tp4992
a(S'quarter'
p4993
tp4994
a(S'rarely'
p4995
S'has'
p4996
tp4997
a(S'theatrical'
p4998
tp4999
a(S'troopers'
p5000
tp5001
a(g601
tp5002
a(S'dud'
p5003
tp5004
a(S'good'
S'actors'
tp5005
a(S'arresting'
p5006
tp5007
a(S'attention'
p5008
tp5009
a(S'uncomfortably'
p5010
tp5011
a(S'cross'
p5012
S'between'
p5013
tp5014
a(S'justice'
p5015
tp5016
a(S'fans'
p5017
tp5018
a(S'actor'
p5019
tp5020
a(S'windtalkers'
p5021
tp5022
a(S'product'
p5023
tp5024
a(S'stands'
tp5025
a(S'coming-of-age'
p5026
tp5027
a(S'who'
p5028
S'can'
p5029
tp5030
a(S'suffers'
S'from'
tp5031
a(S'shocked'
p5032
tp5033
a(S'rises'
p5034
S'above'
p5035
tp5036
a(S'trifle'
p5037
tp5038
a(S'human'
S'face'
tp5039
a(g568
tp5040
a(S'despite'
p5041
g4231
tp5042
a(S'not'
p5043
S'one'
p5044
tp5045
a(S'enough'
p5046
tp5047
a(S'admire'
tp5048
a(S'depth'
tp5049
a(S'meaningless'
p5050
tp5051
a(S'front'
p5052
tp5053
a(S'straight'
p5054
tp5055
a(S'lyrical'
p5056
tp5057
a(S'iran'
p5058
tp5059
a(S'signs'
tp5060
a(S'para'
p5061
tp5062
a(S'even'
p5063
S'more'
p5064
tp5065
a(S'rude'
p5066
tp5067
a(g2509
S'movies'
p5068
tp5069
a(S'shoot'
p5070
tp5071
a(S'dreadful'
p5072
tp5073
a(S'understand'
p5074
S'what'
p5075
tp5076
a(S'kiddie'
p5077
tp5078
a(S'lovers'
p5079
tp5080
a(S'uncanny'
p5081
tp5082
a(S'metaphors'
p5083
tp5084
a(S'footage'
p5085
tp5086
a(S'you'
p5087
S"can't"
p5088
tp5089
a(S'talky'
p5090
tp5091
a(g1223
g1224
tp5092
a(S'window'
p5093
tp5094
a(S'title'
S'role'
tp5095
a(S'she'
p5096
tp5097
a(S'lot'
tp5098
a(S'meets'
p5099
tp5100
a(S'apart'
p5101
S'from'
p5102
tp5103
a(S'delicately'
p5104
tp5105
a(S'tomorrow'
p5106
tp5107
a(S'provide'
tp5108
a(S'mixture'
p5109
tp5110
a(S'science'
p5111
tp5112
a(S'movements'
p5113
tp5114
a(g568
g569
g1912
g1026
g1027
tp5115
a(S'bold'
p5116
tp5117
a(S'one'
p5118
tp5119
a(S'figure'
p5120
tp5121
a(S"it's"
p5122
S'really'
p5123
tp5124
a(S'chance'
p5125
tp5126
a(S'identity'
p5127
tp5128
a(S'usually'
p5129
tp5130
a(S'earth'
tp5131
a(S'tiny'
p5132
tp5133
a(S'five'
p5134
tp5135
a(S'foreign'
p5136
tp5137
a(S'deadpan'
tp5138
a(S'holiday'
p5139
tp5140
a(S'4ever'
p5141
tp5142
a(S'missed'
p5143
tp5144
a(S'vision'
tp5145
a(g1202
tp5146
a(S'impressive'
p5147
tp5148
a(S'brendan'
p5149
tp5150
a(S'program'
p5151
tp5152
a(S'like'
p5153
g2270
tp5154
a(S'williams'
p5155
tp5156
a(S'pieces'
p5157
tp5158
a(S"you've"
p5159
S'seen'
p5160
tp5161
a(S'every'
S'sense'
tp5162
a(S"isn't"
p5163
S'even'
p5164
tp5165
a(S'ironically'
p5166
tp5167
a(S'vague'
p5168
tp5169
a(S'mired'
tp5170
a(S'celebration'
p5171
tp5172
a(S'inside'
p5173
tp5174
a(S"hadn't"
p5175
tp5176
a(S'lines'
p5177
tp5178
a(S'buffs'
p5179
tp5180
a(S'attitude'
tp5181
a(S'using'
p5182
tp5183
a(S'ryan'
p5184
tp5185
a(S'dumb'
p5186
tp5187
a(g3080
tp5188
a(S'ordinary'
tp5189
a(S'male'
p5190
tp5191
a(S'primarily'
p5192
tp5193
a(S"it's"
p5194
S'one'
p5195
tp5196
a(S'its'
S'best'
tp5197
a(g2119
g5046
tp5198
a(S'slow'
p5199
tp5200
a(S'becomes'
p5201
tp5202
a(S'rob'
p5203
tp5204
a(S'mood'
tp5205
a(S'every'
g2044
tp5206
a(g3058
tp5207
a(S'success'
p5208
tp5209
a(S'sensitive'
tp5210
a(S'directing'
p5211
tp5212
a(S'pop'
p5213
tp5214
a(S'seen'
tp5215
a(S'scams'
p5216
tp5217
a(S'you'
p5218
g2797
tp5219
a(S'score'
p5220
tp5221
a(S'detailed'
p5222
tp5223
a(S'coming-of-age'
S'story'
tp5224
a(S'has'
p5225
S'something'
p5226
tp5227
a(S'force'
tp5228
a(S'worse'
tp5229
a(S'subconscious'
p5230
tp5231
a(S'about'
p5232
S'his'
p5233
tp5234
a(S'hopeful'
p5235
tp5236
a(S'lawrence'
p5237
tp5238
a(S'visual'
p5239
tp5240
a(S'determination'
p5241
tp5242
a(S'oddly'
p5243
tp5244
a(S'face'
p5245
tp5246
a(S'los'
p5247
tp5248
a(S'starred'
tp5249
a(g2404
tp5250
a(g389
S'mind'
p5251
tp5252
a(S'musicals'
p5253
tp5254
a(S'thrilling'
tp5255
a(S'lucas'
p5256
tp5257
a(S'try'
tp5258
a(S'strangely'
p5259
tp5260
a(S'length'
p5261
tp5262
a(S'same'
S'movie'
tp5263
a(S'memorable'
tp5264
a(g1734
g4948
tp5265
a(S'life'
tp5266
a(S'class'
p5267
tp5268
a(S'crass'
tp5269
a(S'inspired'
p5270
tp5271
a(S'often'
p5272
tp5273
a(S'kicking'
p5274
tp5275
a(S'one'
S'big'
tp5276
a(S'examine'
p5277
tp5278
a(S'expectations'
p5279
tp5280
a(S'construction'
p5281
tp5282
a(S'really'
S'care'
tp5283
a(S'kill'
tp5284
a(S'adventure'
p5285
tp5286
a(S'connect'
p5287
tp5288
a(S'hope'
tp5289
a(S'surprising'
p5290
tp5291
a(S'chamber'
p5292
tp5293
a(S"it's"
S'more'
tp5294
a(S'entertainment'
p5295
tp5296
a(S"doesn't"
p5297
S'even'
p5298
tp5299
a(g2119
tp5300
a(S"i'd"
p5301
tp5302
a(S'dead'
p5303
tp5304
a(S'respect'
tp5305
a(S'his'
p5306
S'own'
p5307
tp5308
a(S'spark'
p5309
tp5310
a(S'endure'
p5311
tp5312
a(S'interview'
tp5313
a(S'has'
p5314
S'been'
p5315
tp5316
a(S'mother'
p5317
tp5318
a(S'muted'
p5319
tp5320
a(S'good'
p5321
S'enough'
p5322
tp5323
a(S'soggy'
tp5324
a(S'exists'
p5325
tp5326
a(S'sympathy'
p5327
tp5328
a(S'too'
p5329
g3037
tp5330
a(S'get'
p5331
tp5332
a(S'itself'
p5333
tp5334
a(S'fairy-tale'
p5335
tp5336
a(S'from'
p5337
S'its'
p5338
tp5339
a(S'writer/director'
p5340
tp5341
a(S'top-notch'
p5342
tp5343
a(S'remains'
p5344
tp5345
a(S'wants'
tp5346
a(S'stunts'
p5347
tp5348
a(S'sorry'
tp5349
a(S'combines'
p5350
tp5351
a(S'poorly'
p5352
tp5353
a(S'empathy'
tp5354
a(S'tuxedo'
p5355
tp5356
a(S'viewers'
p5357
tp5358
a(g3962
g4312
tp5359
a(S'funny'
p5360
S'moments'
p5361
tp5362
a(S'paying'
p5363
tp5364
a(S'bad'
p5365
tp5366
a(g4358
S'you'
p5367
tp5368
a(S'ever'
p5369
S'seen'
p5370
tp5371
a(S'seat'
p5372
tp5373
a(S'comic'
p5374
tp5375
a(S'meant'
p5376
tp5377
a(g5034
tp5378
a(S'clinical'
p5379
tp5380
a(S'considered'
tp5381
a(g3322
tp5382
a(S'matters'
p5383
tp5384
a(S'detail'
p5385
tp5386
a(S'stephen'
p5387
tp5388
a(S'entertain'
p5389
tp5390
a(S'meal'
p5391
tp5392
a(S'hearts'
p5393
tp5394
a(S'than'
p5395
S'anything'
p5396
tp5397
a(S"'70s"
p5398
tp5399
a(S'immensely'
p5400
tp5401
a(g568
g569
g1912
g1026
tp5402
a(S'slice'
tp5403
a(S'about'
p5404
S'them'
p5405
tp5406
a(S'its'
S'predecessor'
tp5407
a(S'empty'
p5408
tp5409
a(S'land'
p5410
tp5411
a(S'talents'
p5412
tp5413
a(S'seriously'
p5414
tp5415
a(S'emotional'
p5416
tp5417
a(S'curious'
p5418
tp5419
a(S'heavy'
tp5420
a(g1658
tp5421
a(S'eventually'
p5422
tp5423
a(S'much'
p5424
S'better'
p5425
tp5426
a(S'liked'
p5427
tp5428
a(S'any'
p5429
tp5430
a(S'thinking'
p5431
tp5432
a(S'plot'
p5433
S'may'
p5434
tp5435
a(S'tsai'
tp5436
a(S'constant'
p5437
tp5438
a(S'safe'
g4030
tp5439
a(S'beast'
tp5440
a(S'gangster'
p5441
tp5442
a(S'girls'
tp5443
a(S'material'
tp5444
a(S'following'
p5445
tp5446
a(S'caper'
p5447
tp5448
a(S'not'
S'much'
tp5449
a(S'feels'
S'like'
tp5450
a(S'singles'
p5451
tp5452
a(S'chekhov'
p5453
tp5454
a(S"can't"
p5455
tp5456
a(S'series'
tp5457
a(S'metaphor'
tp5458
a(S'conclusion'
p5459
tp5460
a(S'make'
g1232
tp5461
a(g2475
S'help'
p5462
tp5463
a(S'movie'
p5464
S'only'
p5465
tp5466
a(S'when'
S"you're"
tp5467
a(S'version'
p5468
tp5469
a(S'changing'
p5470
tp5471
a(S'comparison'
tp5472
a(S'rendered'
p5473
tp5474
a(S'grand'
p5475
tp5476
a(S'over-the-top'
p5477
tp5478
a(S'throw'
p5479
tp5480
a(S'talk'
S'about'
tp5481
a(S'finest'
p5482
tp5483
a(S'consider'
p5484
tp5485
a(S'nervous'
p5486
tp5487
a(S'must'
tp5488
a(S'hell'
p5489
tp5490
a(S'disjointed'
tp5491
a(g2123
g1422
tp5492
a(S'simply'
p5493
tp5494
a(S'succumbs'
p5495
tp5496
a(S'wears'
p5497
S'out'
p5498
tp5499
a(S'ever'
tp5500
a(S'satisfying'
p5501
tp5502
a(S'distance'
p5503
S'from'
p5504
tp5505
a(S'appears'
p5506
tp5507
a(S'continues'
p5508
tp5509
a(S'could'
p5510
g324
tp5511
a(S'symbolic'
p5512
tp5513
a(S'comes'
p5514
tp5515
a(S'woody'
p5516
tp5517
a(S'exposition'
p5518
tp5519
a(S'suffers'
p5520
tp5521
a(S'simplicity'
tp5522
a(S'bollywood'
p5523
tp5524
a(S'frightening'
tp5525
a(S'favors'
p5526
tp5527
a(S'physical'
p5528
tp5529
a(g5455
S'really'
tp5530
a(S'elaborate'
p5531
tp5532
a(S'trapped'
p5533
tp5534
a(S'heartbreaking'
tp5535
a(S'comedian'
tp5536
a(S'elevates'
p5537
tp5538
a(S'sappy'
p5539
tp5540
a(S'generic'
p5541
tp5542
a(S'besides'
p5543
tp5544
a(S'directorial'
p5545
tp5546
a(S'lightweight'
p5547
tp5548
a(S'glimpse'
tp5549
a(S'otherwise'
tp5550
a(S'clich\xe9'
tp5551
a(S'text'
p5552
tp5553
a(S'loving'
tp5554
a(S'forgettable'
p5555
tp5556
a(S'appealing'
p5557
tp5558
a(S'offers'
tp5559
a(S'here'
p5560
tp5561
a(g4520
g4565
tp5562
a(g5365
g4011
tp5563
a(S'hawk'
p5564
tp5565
a(S'animation'
p5566
tp5567
a(S'set'
p5568
tp5569
a(S'inert'
p5570
tp5571
a(S"cho's"
p5572
tp5573
a(S'teens'
p5574
tp5575
a(S'couples'
tp5576
a(S'neither'
tp5577
a(S'bright'
p5578
tp5579
a(S'resonance'
tp5580
a(g557
S'not'
p5581
tp5582
a(S'quickly'
p5583
tp5584
a(S'know'
p5585
tp5586
a(S'drowned'
tp5587
a(S'mediocre'
p5588
tp5589
a(S'excess'
p5590
tp5591
a(S"i've"
S'seen'
tp5592
a(S'over'
p5593
tp5594
a(S'evokes'
p5595
tp5596
a(g870
S'special'
tp5597
a(S'intellectual'
tp5598
a(S'bad'
p5599
S'boy'
p5600
tp5601
a(S'control'
tp5602
a(S'mishmash'
p5603
tp5604
a(g1780
tp5605
a(S'celluloid'
p5606
tp5607
a(g1646
tp5608
a(S'dare'
p5609
tp5610
a(S'country'
p5611
tp5612
a(S'broad'
p5613
tp5614
a(S'horrible'
p5615
tp5616
a(S'must'
p5617
S'have'
p5618
tp5619
a(S'young'
p5620
g4879
tp5621
a(S'like'
p5622
S"you've"
p5623
tp5624
a(S'guaranteed'
p5625
tp5626
a(S'parable'
p5627
tp5628
a(S'paper'
p5629
tp5630
a(S'cultures'
p5631
tp5632
a(g1162
S'scene'
p5633
tp5634
a(S'clooney'
p5635
tp5636
a(S"haneke's"
p5637
tp5638
a(S'scary'
p5639
tp5640
a(S'artifice'
tp5641
a(S'different'
p5642
tp5643
a(S'worth'
p5644
tp5645
a(S'leaves'
p5646
S'you'
p5647
tp5648
a(S'novel'
tp5649
a(S'confident'
tp5650
a(g4909
tp5651
a(S'setting'
p5652
tp5653
a(S'exploration'
p5654
tp5655
a(S'seem'
p5656
tp5657
a(S'believe'
tp5658
a(S'distance'
tp5659
a(S'gone'
tp5660
a(S"doesn't"
S'mean'
tp5661
a(S'did'
p5662
tp5663
a(g4479
tp5664
a(S'foul'
p5665
tp5666
a(S'movie'
p5667
S'equivalent'
p5668
tp5669
a(g543
tp5670
a(S'style'
p5671
tp5672
a(S'comfort'
p5673
tp5674
a(S'cautionary'
p5675
S'tale'
p5676
tp5677
a(S'colorful'
p5678
tp5679
a(S'man'
p5680
S'who'
p5681
tp5682
a(S'sensational'
p5683
tp5684
a(g4421
g4422
tp5685
a(S'caine'
tp5686
a(S'oddest'
p5687
tp5688
a(S'propaganda'
p5689
tp5690
a(S'lies'
p5691
tp5692
a(S'universal'
p5693
tp5694
a(S'current'
p5695
tp5696
a(S'regard'
tp5697
a(S'scenario'
p5698
tp5699
a(S'domestic'
p5700
tp5701
a(S'unsettling'
p5702
tp5703
a(S'returns'
p5704
tp5705
a(S'smug'
p5706
tp5707
a(S"women's"
p5708
tp5709
a(S'exceptional'
p5710
tp5711
a(S'someone'
p5712
S'who'
p5713
tp5714
a(S'exploiting'
tp5715
a(S'particularly'
p5716
tp5717
a(S'brothers'
p5718
tp5719
a(S'laugh'
p5720
tp5721
a(S'job'
p5722
tp5723
a(S'not'
p5724
g1283
tp5725
a(g3200
S'like'
p5726
tp5727
a(S'few'
g2037
tp5728
a(S'dark'
p5729
S'satire'
p5730
tp5731
a(S'obviously'
p5732
tp5733
a(S'school'
tp5734
a(S'what'
p5735
S'would'
p5736
tp5737
a(g243
tp5738
a(S'enemy'
p5739
tp5740
a(S'far'
p5741
tp5742
a(S'written'
p5743
tp5744
a(g4567
g3938
tp5745
a(g1856
g4368
tp5746
a(S'benefit'
p5747
tp5748
a(S'number'
p5749
tp5750
a(S'build'
p5751
tp5752
a(S'historical'
p5753
tp5754
a(g3472
g72
tp5755
a(S'movie'
tp5756
a(S'free'
p5757
tp5758
a(S'brings'
p5759
tp5760
a(S'past'
tp5761
a(S'faster'
p5762
tp5763
a(S'masterpiece'
p5764
tp5765
a(S'consciousness'
p5766
tp5767
a(S'claustrophobic'
p5768
tp5769
a(S'works'
p5770
tp5771
a(S'emerges'
p5772
tp5773
a(g1869
g1652
tp5774
a(S'scores'
tp5775
a(S'must-see'
tp5776
a(S'humorous'
tp5777
a(S'oliver'
p5778
tp5779
a(S'originality'
p5780
tp5781
a(S'film'
p5782
S'since'
p5783
tp5784
a(S'merely'
p5785
tp5786
a(S'his'
p5787
S'audience'
p5788
tp5789
a(S'better'
tp5790
a(S'places'
p5791
tp5792
a(g2905
tp5793
a(S'turned'
p5794
tp5795
a(S'dreary'
tp5796
a(S'usual'
tp5797
a(g909
tp5798
a(S'clarity'
p5799
tp5800
a(S'giggles'
p5801
tp5802
a(S"there's"
S'just'
tp5803
a(S'beginning'
tp5804
a(S'quietly'
p5805
tp5806
a(S'obsession'
p5807
tp5808
a(S'noise'
p5809
tp5810
a(S'its'
p5811
S'heart'
p5812
tp5813
a(g594
tp5814
a(S'william'
p5815
tp5816
a(S'may'
p5817
S'find'
p5818
tp5819
a(S"it's"
tp5820
a(S'game'
p5821
tp5822
a(S'quiet'
tp5823
a(S'wit'
tp5824
a(S'realize'
p5825
tp5826
a(S'witch'
p5827
tp5828
a(S'polanski'
p5829
tp5830
a(S'spent'
p5831
tp5832
a(S'cartoon'
p5833
tp5834
a(S'numbers'
p5835
tp5836
a(S'exposing'
tp5837
a(S'even'
p5838
g4266
tp5839
a(S'strained'
p5840
tp5841
a(S'proceedings'
tp5842
a(S'award'
p5843
tp5844
a(S'[the'
p5845
tp5846
a(S'can'
p5847
S'still'
p5848
tp5849
a(S"there's"
p5850
S'enough'
p5851
tp5852
a(S'implausible'
p5853
tp5854
a(S'unique'
tp5855
a(S'them'
p5856
tp5857
a(S'irritating'
p5858
tp5859
a(S'whether'
tp5860
a(S"we've"
p5861
tp5862
a(S'terms'
tp5863
a(S'means'
p5864
tp5865
a(S'worthwhile'
p5866
tp5867
a(S'playful'
p5868
tp5869
a(g707
S'interesting'
p5870
tp5871
a(S'form'
p5872
tp5873
a(S'list'
p5874
tp5875
a(S'ones'
p5876
tp5877
a(S'making'
tp5878
a(S'references'
tp5879
a(S'dealing'
tp5880
a(S'want'
p5881
tp5882
a(S'philip'
p5883
tp5884
a(S'particular'
tp5885
a(S'reign'
tp5886
a(g5516
g3520
tp5887
a(S'pertinent'
p5888
tp5889
a(g2885
tp5890
a(S'add'
p5891
tp5892
a(S'from'
tp5893
a(S'maintain'
p5894
tp5895
a(g4670
tp5896
a(S'flashy'
tp5897
a(S'exhilarating'
p5898
tp5899
a(S'peek'
tp5900
a(S'mere'
p5901
tp5902
a(S'firmly'
p5903
tp5904
a(S'sounds'
p5905
tp5906
a(S'monster'
p5907
tp5908
a(S'grief'
p5909
tp5910
a(S'ripe'
p5911
tp5912
a(S'while'
p5913
S'not'
p5914
tp5915
a(S'crowd-pleaser'
p5916
tp5917
a(S'has'
p5918
S'ever'
p5919
tp5920
a(S'not'
p5921
S'always'
p5922
tp5923
a(S'problem'
tp5924
a(S'adaptation'
tp5925
a(S'loved'
p5926
tp5927
a(S'dream'
p5928
tp5929
a(S'20th'
p5930
tp5931
a(g3819
g2277
tp5932
a(S'most'
g2760
tp5933
a(S'insightful'
tp5934
a(S'repetitive'
p5935
tp5936
a(S'fully'
p5937
tp5938
a(S'questions'
p5939
S'than'
p5940
tp5941
a(S'complexity'
tp5942
a(S'getting'
p5943
tp5944
a(S'while'
tp5945
a(S'you'
p5946
g4464
tp5947
a(S'film'
p5948
S"doesn't"
p5949
tp5950
a(S'soap'
p5951
S'opera'
p5952
tp5953
a(S'vehicle'
p5954
tp5955
a(S'junk'
tp5956
a(S"movie's"
p5957
tp5958
a(S'brilliant'
p5959
tp5960
a(S'early'
p5961
tp5962
a(g5153
g2270
g2271
g2272
tp5963
a(S'boys'
p5964
tp5965
a(S'account'
tp5966
a(S'produce'
p5967
tp5968
a(S'when'
p5969
S'you'
p5970
S'think'
p5971
tp5972
a(S"director's"
S'cut'
tp5973
a(S'theatrical'
S'release'
tp5974
a(S"'the"
p5975
tp5976
a(g3135
g4310
tp5977
a(S'huge'
p5978
tp5979
a(S'baran'
p5980
tp5981
a(S'chaotic'
tp5982
a(S'resolutely'
p5983
tp5984
a(S'crazy'
tp5985
a(S"it's"
S'better'
tp5986
a(S'profile'
p5987
tp5988
a(S'finale'
p5989
tp5990
a(S'suggests'
p5991
tp5992
a(g3199
g3200
g5726
tp5993
a(g3637
S'its'
p5994
tp5995
a(S'much'
p5996
S'more'
p5997
tp5998
a(S'urban'
p5999
tp6000
a(S'sordid'
tp6001
a(S'pointless'
tp6002
a(S'film'
p6003
g4219
tp6004
a(S'smartly'
p6005
tp6006
a(g3046
tp6007
a(S'travel'
tp6008
a(S'garbage'
p6009
tp6010
a(S'strain'
tp6011
a(S'welcome'
p6012
tp6013
a(S'popular'
p6014
tp6015
a(S'personal'
p6016
tp6017
a(S'weird'
p6018
tp6019
a(S'martha'
p6020
tp6021
a(g625
g626
tp6022
a(S'both'
p6023
tp6024
a(S'some'
p6025
tp6026
a(S'pants'
p6027
tp6028
a(S'cares'
p6029
tp6030
a(S'remember'
tp6031
a(S'not'
p6032
S'all'
p6033
tp6034
a(S'chest'
p6035
tp6036
a(S'level'
p6037
tp6038
a(g2610
tp6039
a(S'exploitative'
p6040
tp6041
a(S'son'
p6042
tp6043
a(S'lyricism'
tp6044
a(S'cgi'
p6045
tp6046
a(S'wilco'
p6047
tp6048
a(S'beijing'
p6049
tp6050
a(S'age'
tp6051
a(S'awkwardly'
p6052
tp6053
a(S'pain'
p6054
tp6055
a(S'ever'
p6056
g2500
g2501
tp6057
a(g3270
tp6058
a(S'uninvolving'
p6059
tp6060
a(S'understated'
p6061
tp6062
a(S'can'
p6063
S'see'
p6064
tp6065
a(S'worse'
p6066
S'than'
p6067
tp6068
a(S'through'
p6069
tp6070
a(S'preachy'
p6071
tp6072
a(S'sticks'
p6073
tp6074
a(S'sea'
p6075
tp6076
a(S'city'
p6077
tp6078
a(S'beach'
p6079
tp6080
a(g5041
tp6081
a(S'all'
p6082
S'too'
p6083
tp6084
a(g4588
g498
tp6085
a(S'awesome'
p6086
tp6087
a(S'charisma'
tp6088
a(S'your'
g5372
tp6089
a(S'role'
tp6090
a(S'bit'
p6091
S'too'
p6092
tp6093
a(S'look'
p6094
S'like'
p6095
tp6096
a(S'endlessly'
tp6097
a(S'composed'
tp6098
a(S'buy'
p6099
tp6100
a(S'predecessors'
p6101
tp6102
a(S'turns'
tp6103
a(S'avary'
p6104
tp6105
a(g1323
tp6106
a(S'ring'
tp6107
a(S'intended'
tp6108
a(S'while'
p6109
S"it's"
p6110
tp6111
a(S'respectable'
tp6112
a(S'song'
p6113
tp6114
a(S'step'
p6115
tp6116
a(S'worst'
p6117
tp6118
a(S'went'
p6119
tp6120
a(S'gang'
p6121
tp6122
a(S'happens'
p6123
tp6124
a(S'com'
p6125
tp6126
a(S'measure'
tp6127
a(S'extended'
p6128
tp6129
a(S'manhattan'
p6130
tp6131
a(S'nod'
tp6132
a(S'substance'
tp6133
a(S'hokum'
p6134
tp6135
a(S'screen'
p6136
tp6137
a(S'target'
p6138
tp6139
a(S'pic'
p6140
tp6141
a(g621
g1134
tp6142
a(S'tender'
tp6143
a(S'[a]'
p6144
tp6145
a(S'keep'
p6146
S'you'
p6147
tp6148
a(S'preposterous'
tp6149
a(S'lesson'
p6150
tp6151
a(S'more'
p6152
S'than'
p6153
tp6154
a(S'movie'
p6155
S'makes'
p6156
tp6157
a(S'your'
p6158
S'heart'
p6159
tp6160
a(S'talented'
p6161
S'cast'
p6162
tp6163
a(S'pathos'
tp6164
a(S'ranks'
p6165
tp6166
a(S'memories'
p6167
tp6168
a(S'fleeting'
p6169
tp6170
a(S"it's"
S'both'
tp6171
a(S'fast'
p6172
tp6173
a(S'stunt'
p6174
tp6175
a(S'mention'
tp6176
a(S'allows'
tp6177
a(S'inexplicably'
p6178
tp6179
a(S'snow'
p6180
tp6181
a(g4735
tp6182
a(S'purposeless'
p6183
tp6184
a(S'tasty'
p6185
tp6186
a(S'writing'
p6187
tp6188
a(S'invaluable'
p6189
tp6190
a(g3747
g424
tp6191
a(S'shame'
p6192
tp6193
a(S'coming'
p6194
tp6195
a(S'fluff'
p6196
tp6197
a(S'childhood'
p6198
tp6199
a(S'more'
S'often'
tp6200
a(S'grandeur'
p6201
tp6202
a(S'halfway'
p6203
S'through'
p6204
tp6205
a(S'daring'
tp6206
a(S'friday'
p6207
tp6208
a(S'characters'
p6209
S'who'
p6210
tp6211
a(S'rewarding'
tp6212
a(S'precision'
p6213
tp6214
a(S'canny'
p6215
tp6216
a(S'banal'
p6217
tp6218
a(S'taken'
g5414
tp6219
a(S'come'
p6220
tp6221
a(S'named'
p6222
tp6223
a(S'charlie'
p6224
tp6225
a(S'wow'
p6226
tp6227
a(S'home'
p6228
S'video'
p6229
tp6230
a(S'question'
p6231
tp6232
a(S'deft'
p6233
tp6234
a(S'wild'
p6235
tp6236
a(S'wild'
S'ride'
tp6237
a(g5153
g2270
g2271
tp6238
a(S'pace'
tp6239
a(S'rote'
p6240
tp6241
a(S'very'
p6242
S'funny'
p6243
tp6244
a(S'sustains'
p6245
tp6246
a(S'tell'
p6247
tp6248
a(g4437
g1151
tp6249
a(S'high'
p6250
S'school'
p6251
tp6252
a(S'breaks'
p6253
tp6254
a(S'youth'
p6255
tp6256
a(S'distinguish'
p6257
tp6258
a(S'commercial'
p6259
tp6260
a(S'touch'
p6261
tp6262
a(g2118
tp6263
a(S'background'
p6264
tp6265
a(S'years'
tp6266
a(S'difference'
p6267
tp6268
a(S'reveals'
tp6269
a(S'joel'
p6270
tp6271
a(S'average'
p6272
tp6273
a(S'deftly'
p6274
tp6275
a(S'sensibilities'
p6276
tp6277
a(S'dazzling'
tp6278
a(S'quest'
p6279
tp6280
a(S'mendes'
p6281
tp6282
a(g1270
tp6283
a(S'more'
S'likely'
tp6284
a(S'distinctive'
p6285
tp6286
a(g3430
g3431
tp6287
a(S'frame'
p6288
tp6289
a(S'washington'
p6290
tp6291
a(S'grant'
p6292
tp6293
a(S'charge'
tp6294
a(S'catch'
tp6295
a(g5333
S'too'
p6296
tp6297
a(S'aware'
tp6298
a(S'betty'
p6299
tp6300
a(S'predictable'
S'plot'
tp6301
a(S'dangerous'
p6302
tp6303
a(g2798
tp6304
a(S'wears'
p6305
tp6306
a(S'depressing'
p6307
tp6308
a(S'course'
p6309
tp6310
a(S'highest'
p6311
tp6312
a(S'offer'
p6313
tp6314
a(S'move'
tp6315
a(S'matter'
p6316
S'how'
p6317
tp6318
a(S'instead'
p6319
tp6320
a(g2185
tp6321
a(S'lively'
tp6322
a(S'asset'
tp6323
a(g2686
tp6324
a(S'although'
tp6325
a(S'tiresome'
p6326
tp6327
a(S'have'
p6328
S'had'
p6329
tp6330
a(S'sometimes'
p6331
tp6332
a(S'realism'
p6333
tp6334
a(S'his'
p6335
S'best'
p6336
tp6337
a(S'dense'
tp6338
a(S'pretty'
p6339
S'much'
p6340
tp6341
a(S'crimes'
p6342
tp6343
a(S'isolation'
tp6344
a(S'surreal'
tp6345
a(S'cliche'
p6346
tp6347
a(S'savvy'
p6348
tp6349
a(S'need'
p6350
tp6351
a(S'green'
p6352
tp6353
a(S'constructed'
p6354
tp6355
a(S'provided'
p6356
tp6357
a(S'political'
p6358
tp6359
a(S'diversion'
p6360
tp6361
a(S'spielberg'
p6362
tp6363
a(g5675
tp6364
a(S'delightful'
p6365
S'comedy'
p6366
tp6367
a(S'concoction'
p6368
tp6369
a(S'writer'
p6370
tp6371
a(S'phone'
p6372
tp6373
a(S'grim'
p6374
tp6375
a(S'thoughtful'
tp6376
a(S'not'
p6377
S'even'
p6378
tp6379
a(S'involving'
p6380
tp6381
a(S'sports'
p6382
tp6383
a(g1271
tp6384
a(g2951
tp6385
a(S'have'
S'given'
tp6386
a(S'piece'
p6387
tp6388
a(S'disguise'
p6389
tp6390
a(S'playing'
tp6391
a(S'showtime'
p6392
tp6393
a(S'disney'
p6394
tp6395
a(g3025
tp6396
a(S'her'
p6397
S'own'
p6398
tp6399
a(S'philosophy'
tp6400
a(g1623
tp6401
a(S'those'
p6402
S'rare'
p6403
tp6404
a(S'haphazard'
p6405
tp6406
a(S'only'
p6407
S'mildly'
p6408
tp6409
a(S'daughter'
tp6410
a(S'extremely'
p6411
tp6412
a(S'walking'
p6413
tp6414
a(S'saturday'
p6415
tp6416
a(S'from'
p6417
S'being'
p6418
tp6419
a(S'bigger'
p6420
tp6421
a(S'good'
S'time'
tp6422
a(g5315
S'made'
p6423
tp6424
a(S'sides'
p6425
tp6426
a(S'what'
S'makes'
tp6427
a(g5952
tp6428
a(S'what'
p6429
S'you'
p6430
tp6431
a(S'share'
p6432
tp6433
a(S'portrait'
p6434
tp6435
a(S'needs'
tp6436
a(S'morally'
p6437
tp6438
a(S'paced'
p6439
tp6440
a(S'leads'
tp6441
a(S'intermittently'
p6442
tp6443
a(S'all'
S'ages'
tp6444
a(S'waiting'
p6445
tp6446
a(S'potential'
p6447
tp6448
a(S'news'
p6449
tp6450
a(S'ought'
tp6451
a(S'between'
p6452
tp6453
a(g2183
S'too'
p6454
tp6455
a(S'actress'
p6456
tp6457
a(g1847
g1848
tp6458
a(S'scruffy'
p6459
tp6460
a(S'miserable'
p6461
tp6462
a(S'one'
p6463
S'part'
p6464
tp6465
a(g3394
S'which'
p6466
tp6467
a(S'creepy'
p6468
tp6469
a(S'stylish'
p6470
tp6471
a(S'themselves'
p6472
tp6473
a(g1952
tp6474
a(S'cleverly'
p6475
tp6476
a(S'damned'
tp6477
a(S'george'
p6478
tp6479
a(S"i'll"
p6480
tp6481
a(S'jokes'
p6482
tp6483
a(S'showcase'
p6484
tp6485
a(S'beautiful'
S'film'
tp6486
a(S'without'
p6487
g214
tp6488
a(g569
g1912
g1026
tp6489
a(S'ben'
p6490
tp6491
a(g6336
S'work'
p6492
tp6493
a(S'era'
p6494
tp6495
a(S'right'
S'now'
tp6496
a(S'improved'
p6497
tp6498
a(S'enterprise'
p6499
tp6500
a(S'sequels'
p6501
tp6502
a(S'debate'
p6503
tp6504
a(S'pool'
p6505
tp6506
a(S'jason'
p6507
tp6508
a(S'create'
p6509
tp6510
a(S'dark'
p6511
tp6512
a(S'hollywood'
S'ending'
tp6513
a(S'cohesive'
p6514
tp6515
a(S'predictable'
p6516
tp6517
a(S'grab'
tp6518
a(S'have'
p6519
S'been'
p6520
S'made'
p6521
tp6522
a(S"it's"
p6523
S'still'
p6524
tp6525
a(S'characters'
tp6526
a(S'entire'
p6527
tp6528
a(S'documentary'
p6529
tp6530
a(S'given'
p6531
tp6532
a(S'super'
S'troopers'
tp6533
a(S'interaction'
p6534
tp6535
a(S'traditional'
p6536
tp6537
a(S'insipid'
tp6538
a(S'focus'
p6539
tp6540
a(S'images'
p6541
tp6542
a(g1588
tp6543
a(S'brutally'
p6544
tp6545
a(S'happened'
tp6546
a(g4364
S'scenes'
p6547
tp6548
a(S'dad'
p6549
tp6550
a(S'pryor'
p6551
tp6552
a(S'among'
p6553
tp6554
a(S'avoid'
p6555
tp6556
a(S'prison'
p6557
tp6558
a(S'ends'
tp6559
a(S'grace'
tp6560
a(S'hip-hop'
p6561
tp6562
a(S'portrays'
tp6563
a(S'recent'
p6564
tp6565
a(S'several'
p6566
tp6567
a(S'resist'
tp6568
a(S'vulgar'
p6569
tp6570
a(S'charms'
p6571
tp6572
a(S'famous'
p6573
tp6574
a(S'tired'
p6575
tp6576
a(g5012
tp6577
a(S'arnold'
p6578
tp6579
a(S'pulling'
p6580
tp6581
a(S'should'
p6582
tp6583
a(S'middle'
tp6584
a(S'plight'
tp6585
a(S'by-the-numbers'
p6586
tp6587
a(S'doing'
p6588
tp6589
a(S'smarter'
p6590
tp6591
a(S'snipes'
p6592
tp6593
a(S'built'
tp6594
a(S'roles'
p6595
tp6596
a(S'race'
tp6597
a(S"can't"
p6598
S'quite'
p6599
tp6600
a(S'tragic'
p6601
tp6602
a(S'nasty'
p6603
tp6604
a(S'flick'
p6605
tp6606
a(S'super'
p6607
tp6608
a(S'major'
p6609
tp6610
a(S'reflect'
p6611
tp6612
a(S'thoroughly'
p6613
S'enjoyable'
p6614
tp6615
a(S'stylized'
p6616
tp6617
a(S'richly'
p6618
tp6619
a(S'heavy-handed'
p6620
tp6621
a(g3438
tp6622
a(S'extreme'
p6623
tp6624
a(S'elegance'
tp6625
atRp6626
.